(dp0
VupperBodyMesh
p1
(dp2
V246-915-249-891
p3
(lp4
L150L
asV810-231-822-233
p5
(lp6
L1745L
aL4763L
asV246-198-279-177
p7
(lp8
L685L
aL3940L
asV383-070-421-095
p9
(lp10
L726L
aL4378L
asV571-287-591-305
p11
(lp12
L2339L
aL5472L
asV889-682-913-715
p13
(lp14
L435L
asV126-223-131-241
p15
(lp16
L295L
aL1319L
asV513-144-532-130
p17
(lp18
L2693L
aL3241L
asV412-303-447-316
p19
(lp20
L2174L
aL5451L
asV782-763-811-704
p21
(lp22
L2837L
asV133-313-149-320
p23
(lp24
L4152L
aL5206L
asV703-368-714-384
p25
(lp26
L630L
aL4601L
asV765-219-777-213
p27
(lp28
L431L
aL3679L
asV376-767-399-762
p29
(lp30
L4181L
asV109-690-126-671
p31
(lp32
L2594L
asV095-242-126-223
p33
(lp34
L4409L
aL5365L
asV076-438-081-491
p35
(lp36
L4121L
asV075-793-079-830
p37
(lp38
L2666L
asV329-190-352-174
p39
(lp40
L1634L
aL3724L
asV394-854-415-813
p41
(lp42
L3008L
asV868-186-868-191
p43
(lp44
L948L
aL2258L
asV928-131-945-124
p45
(lp46
L2662L
aL4362L
asV352-174-385-182
p47
(lp48
L456L
aL5421L
asV120-337-136-328
p49
(lp50
L3174L
aL5089L
asV757-970-783-990
p51
(lp52
L5195L
asV658-735-692-758
p53
(lp54
L3306L
asV856-101-859-092
p55
(lp56
L3261L
aL3706L
asV097-841-127-879
p57
(lp58
L479L
asV156-740-176-717
p59
(lp60
L831L
asV880-215-888-209
p61
(lp62
L478L
aL862L
asV399-908-435-881
p63
(lp64
L2276L
asV174-253-212-240
p65
(lp66
L674L
aL1266L
asV902-156-910-164
p67
(lp68
L4036L
aL4983L
asV823-048-837-042
p69
(lp70
L1014L
aL3966L
asV811-366-823-366
p71
(lp72
L787L
aL2917L
asV873-209-884-204
p73
(lp74
L3561L
aL5464L
asV283-700-310-687
p75
(lp76
L1233L
asV145-716-156-740
p77
(lp78
L548L
asV054-343-061-320
p79
(lp80
L2475L
aL5257L
asV217-950-229-968
p81
(lp82
L540L
asV251-824-256-791
p83
(lp84
L2720L
asV265-962-277-987
p85
(lp86
L601L
asV913-715-949-756
p87
(lp88
L2413L
asV421-095-455-120
p89
(lp90
L287L
aL4251L
asV742-220-751-207
p91
(lp92
L3516L
aL5506L
asV352-174-384-161
p93
(lp94
L1939L
aL4490L
asV277-987-283-968
p95
(lp96
L620L
asV256-623-272-602
p97
(lp98
L1647L
asV533-086-572-101
p99
(lp100
L64L
aL4856L
asV596-618-603-663
p101
(lp102
L4103L
asV122-367-125-358
p103
(lp104
L1758L
aL4880L
asV647-671-659-649
p105
(lp106
L3238L
asV328-550-335-572
p107
(lp108
L4605L
asV667-930-673-960
p109
(lp110
L647L
asV158-545-166-487
p111
(lp112
L5474L
asV891-506-905-558
p113
(lp114
L3361L
asV097-435-099-490
p115
(lp116
L3295L
asV421-118-454-139
p117
(lp118
L895L
aL2173L
asV093-655-117-647
p119
(lp120
L4978L
asV680-973-689-960
p121
(lp122
L2195L
asV214-614-227-603
p123
(lp124
L4306L
asV843-665-858-691
p125
(lp126
L4451L
asV863-145-875-164
p127
(lp128
L2445L
aL5213L
asV326-825-338-797
p129
(lp130
L5150L
asV111-485-138-540
p131
(lp132
L4788L
asV404-680-415-693
p133
(lp134
L3029L
asV406-605-422-574
p135
(lp136
L1921L
asV841-077-850-071
p137
(lp138
L3084L
aL5484L
asV302-323-333-333
p139
(lp140
L2787L
aL5396L
asV262-723-266-693
p141
(lp142
L2424L
asV150-882-158-908
p143
(lp144
L2215L
asV117-647-135-651
p145
(lp146
L291L
asV426-167-455-187
p147
(lp148
L301L
aL465L
asV099-490-126-546
p149
(lp150
L1153L
asV086-699-097-708
p151
(lp152
L879L
asV335-572-342-598
p153
(lp154
L4700L
asV139-628-174-617
p155
(lp156
L721L
asV347-306-368-319
p157
(lp158
L29L
aL706L
asV116-361-121-354
p159
(lp160
L1703L
aL2163L
asV792-371-811-366
p161
(lp162
L3854L
aL4937L
asV380-095-421-118
p163
(lp164
L1771L
aL3894L
asV554-770-585-772
p165
(lp166
L1636L
asV079-318-092-299
p167
(lp168
L391L
aL4618L
asV629-701-647-671
p169
(lp170
L4873L
asV226-917-226-935
p171
(lp172
L2441L
asV316-509-328-550
p173
(lp174
L838L
asV850-310-855-302
p175
(lp176
L2628L
aL4581L
asV760-101-786-108
p177
(lp178
L2388L
aL3668L
asV836-250-837-241
p179
(lp180
L1689L
aL5234L
asV160-854-168-832
p181
(lp182
L463L
asV226-935-238-948
p183
(lp184
L2491L
asV873-188-873-195
p185
(lp186
L4298L
aL5316L
asV304-295-336-283
p187
(lp188
L988L
aL1278L
asV256-722-264-765
p189
(lp190
L1557L
asV856-649-874-630
p191
(lp192
L582L
asV350-295-369-305
p193
(lp194
L4994L
aL5493L
asV122-433-148-388
p195
(lp196
L555L
asV444-745-446-787
p197
(lp198
L1196L
asV510-172-531-187
p199
(lp200
L474L
aL1207L
asV107-734-125-711
p201
(lp202
L2709L
asV079-242-084-260
p203
(lp204
L3754L
aL4148L
asV731-246-733-233
p205
(lp206
L74L
aL3575L
asV050-364-054-343
p207
(lp208
L1173L
aL3124L
asV659-649-693-651
p209
(lp210
L5540L
asV875-769-897-819
p211
(lp212
L705L
asV373-944-399-932
p213
(lp214
L1578L
asV367-872-394-854
p215
(lp216
L3845L
asV866-104-875-105
p217
(lp218
L1610L
aL2795L
asV831-077-859-092
p219
(lp220
L3505L
aL4895L
asV413-708-424-699
p221
(lp222
L2022L
asV965-117-972-124
p223
(lp224
L3793L
aL5402L
asV874-151-890-152
p225
(lp226
L102L
aL1524L
asV736-816-757-775
p227
(lp228
L1907L
asV282-564-293-579
p229
(lp230
L3196L
asV924-060-929-052
p231
(lp232
L4484L
aL5252L
asV515-104-532-130
p233
(lp234
L4185L
aL4498L
asV136-276-174-253
p235
(lp236
L2243L
aL4369L
asV227-865-228-894
p237
(lp238
L5458L
asV296-919-297-897
p239
(lp240
L4749L
asV732-260-741-279
p241
(lp242
L1065L
aL3632L
asV649-593-677-561
p243
(lp244
L419L
asV367-668-368-691
p245
(lp246
L541L
asV514-298-546-295
p247
(lp248
L1265L
aL3884L
asV198-572-208-558
p249
(lp250
L2375L
asV599-878-620-848
p251
(lp252
L3756L
asV966-131-972-124
p253
(lp254
L446L
aL1536L
asV757-775-779-816
p255
(lp256
L2325L
asV907-068-918-056
p257
(lp258
L1887L
aL2378L
asV393-647-399-628
p259
(lp260
L3680L
asV265-875-271-890
p261
(lp262
L963L
asV250-792-256-766
p263
(lp264
L877L
asV455-120-472-101
p265
(lp266
L1640L
aL5306L
asV732-219-736-227
p267
(lp268
L1795L
aL3022L
asV739-323-747-335
p269
(lp270
L5259L
asV214-763-222-728
p271
(lp272
L418L
asV082-675-095-674
p273
(lp274
L4877L
asV122-945-136-952
p275
(lp276
L2915L
asV896-227-904-223
p277
(lp278
L2489L
aL3430L
asV693-651-731-683
p279
(lp280
L5546L
asV357-572-385-546
p281
(lp282
L4006L
asV301-922-312-945
p283
(lp284
L451L
asV782-261-792-242
p285
(lp286
L545L
aL3641L
asV410-251-428-238
p287
(lp288
L598L
aL2839L
asV429-255-444-266
p289
(lp290
L2062L
aL2066L
asV173-632-199-633
p291
(lp292
L276L
asV329-863-337-882
p293
(lp294
L590L
asV895-215-896-227
p295
(lp296
L2896L
aL4726L
asV106-298-136-276
p297
(lp298
L2607L
aL5409L
asV645-560-674-509
p299
(lp300
L2962L
asV143-668-143-691
p301
(lp302
L1169L
asV320-063-380-095
p303
(lp304
L2401L
aL4257L
asV297-967-313-990
p305
(lp306
L4054L
asV849-028-849-035
p307
(lp308
L362L
aL1312L
asV350-954-380-929
p309
(lp310
L4171L
asV247-984-256-960
p311
(lp312
L2773L
asV811-366-815-381
p313
(lp314
L230L
aL1621L
asV143-341-179-322
p315
(lp316
L4537L
aL4585L
asV304-820-316-795
p317
(lp318
L3385L
asV568-438-607-455
p319
(lp320
L1170L
asV110-279-147-256
p321
(lp322
L1035L
aL5303L
asV219-787-234-765
p323
(lp324
L94L
asV765-305-793-313
p325
(lp326
L277L
aL1228L
asV574-699-603-663
p327
(lp328
L4013L
asV181-466-191-416
p329
(lp330
L3440L
asV601-715-625-682
p331
(lp332
L4357L
asV696-370-703-368
p333
(lp334
L1725L
aL4411L
asV747-335-761-358
p335
(lp336
L5208L
asV182-661-202-687
p337
(lp338
L1107L
asV333-322-347-331
p339
(lp340
L1563L
aL3140L
asV680-992-692-972
p341
(lp342
L1005L
asV829-285-842-290
p343
(lp344
L1167L
aL4716L
asV620-629-623-661
p345
(lp346
L969L
asV415-751-419-775
p347
(lp348
L3777L
asV319-992-327-981
p349
(lp350
L3324L
asV242-932-256-946
p351
(lp352
L5307L
asV712-970-739-956
p353
(lp354
L2469L
asV197-161-218-139
p355
(lp356
L2043L
aL2937L
asV256-155-295-133
p357
(lp358
L3400L
aL4879L
asV932-185-940-182
p359
(lp360
L24L
aL4495L
asV297-525-304-558
p361
(lp362
L2907L
asV193-178-218-159
p363
(lp364
L2816L
aL4690L
asV705-246-720-254
p365
(lp366
L4395L
aL5237L
asV203-672-236-679
p367
(lp368
L4840L
asV256-876-263-891
p369
(lp370
L1720L
asV578-318-591-305
p371
(lp372
L1430L
aL2037L
asV388-659-404-680
p373
(lp374
L4865L
asV776-956-802-970
p375
(lp376
L239L
asV893-051-910-051
p377
(lp378
L2517L
aL5007L
asV705-246-718-228
p379
(lp380
L2092L
aL5126L
asV347-249-369-264
p381
(lp382
L2564L
aL2993L
asV356-963-374-952
p383
(lp384
L4477L
asV564-756-601-715
p385
(lp386
L546L
asV097-708-099-729
p387
(lp388
L2197L
asV346-673-354-655
p389
(lp390
L2080L
asV800-494-838-561
p391
(lp392
L4474L
asV307-235-335-249
p393
(lp394
L641L
aL2082L
asV385-546-402-583
p395
(lp396
L5174L
asV295-655-330-661
p397
(lp398
L52L
asV290-728-298-763
p399
(lp400
L1120L
asV739-133-749-114
p401
(lp402
L2367L
aL5116L
asV095-261-131-241
p403
(lp404
L2373L
aL4698L
asV522-256-551-269
p405
(lp406
L1082L
aL2230L
asV715-343-729-338
p407
(lp408
L3413L
aL3826L
asV265-234-305-248
p409
(lp410
L1068L
aL4253L
asV548-185-575-164
p411
(lp412
L17L
aL2686L
asV929-772-941-812
p413
(lp414
L3441L
asV612-946-623-931
p415
(lp416
L2506L
asV097-343-099-355
p417
(lp418
L171L
aL3221L
asV830-801-875-769
p419
(lp420
L1680L
asV384-879-413-841
p421
(lp422
L5386L
asV865-166-875-164
p423
(lp424
L2903L
aL4518L
asV336-283-350-295
p425
(lp426
L681L
aL2294L
asV399-628-420-643
p427
(lp428
L5281L
asV249-891-256-876
p429
(lp430
L2827L
asV245-047-258-075
p431
(lp432
L1794L
aL5447L
asV066-647-105-605
p433
(lp434
L5318L
asV354-800-359-834
p435
(lp436
L392L
asV044-259-051-277
p437
(lp438
L309L
aL2553L
asV636-123-675-100
p439
(lp440
L348L
aL3883L
asV872-456-891-506
p441
(lp442
L4520L
asV677-561-715-494
p443
(lp444
L4201L
asV136-952-155-963
p445
(lp446
L5533L
asV212-240-234-248
p447
(lp448
L1912L
aL5062L
asV726-301-742-314
p449
(lp450
L2824L
aL3343L
asV384-161-426-167
p451
(lp452
L1225L
aL3083L
asV941-812-980-801
p453
(lp454
L1291L
asV853-141-859-161
p455
(lp456
L754L
aL2779L
asV214-178-239-157
p457
(lp458
L491L
aL4077L
asV313-641-354-655
p459
(lp460
L32L
asV238-948-248-962
p461
(lp462
L2496L
asV310-899-337-882
p463
(lp464
L1611L
asV148-388-191-416
p465
(lp466
L4809L
asV346-487-389-433
p467
(lp468
L1600L
asV161-954-174-971
p469
(lp470
L5225L
asV399-882-399-908
p471
(lp472
L3321L
asV087-280-092-299
p473
(lp474
L859L
aL935L
asV227-865-235-847
p475
(lp476
L3095L
asV630-295-648-313
p477
(lp478
L3130L
asV425-733-434-710
p479
(lp480
L5236L
asV758-146-795-123
p481
(lp482
L1541L
aL2390L
asV795-123-818-102
p483
(lp484
L188L
aL927L
asV234-786-241-766
p485
(lp486
L1311L
asV717-552-758-493
p487
(lp488
L2023L
asV857-182-868-186
p489
(lp490
L2006L
aL5127L
asV261-824-271-851
p491
(lp492
L2343L
asV288-844-298-863
p493
(lp494
L2702L
asV879-111-896-109
p495
(lp496
L1438L
aL3832L
asV179-322-225-300
p497
(lp498
L1139L
aL4802L
asV380-140-427-157
p499
(lp500
L2262L
aL5016L
asV675-135-701-148
p501
(lp502
L2744L
aL2985L
asV765-290-792-306
p503
(lp504
L258L
aL3546L
asV062-745-072-705
p505
(lp506
L3604L
asV916-176-928-170
p507
(lp508
L3397L
aL4311L
asV715-494-758-472
p509
(lp510
L913L
asV072-705-086-686
p511
(lp512
L2758L
asV719-133-738-114
p513
(lp514
L2268L
aL3110L
asV674-366-696-370
p515
(lp516
L529L
aL1209L
asV413-841-427-805
p517
(lp518
L2179L
asV854-196-868-191
p519
(lp520
L96L
aL778L
asV713-394-726-394
p521
(lp522
L2249L
aL4175L
asV731-683-757-652
p523
(lp524
L4972L
asV449-442-453-407
p525
(lp526
L1258L
asV370-282-389-265
p527
(lp528
L597L
aL1459L
asV147-256-192-235
p529
(lp530
L2488L
aL3214L
asV304-558-314-572
p531
(lp532
L3745L
asV714-384-721-377
p533
(lp534
L4031L
aL5441L
asV928-833-961-816
p535
(lp536
L753L
asV124-952-138-961
p537
(lp538
L3048L
asV795-381-806-378
p539
(lp540
L3852L
aL5155L
asV132-831-160-854
p541
(lp542
L3061L
asV914-125-920-115
p543
(lp544
L8L
aL2285L
asV805-306-819-312
p545
(lp546
L4670L
aL4703L
asV157-800-176-763
p547
(lp548
L5052L
asV121-354-138-355
p549
(lp550
L2955L
aL5371L
asV742-314-753-302
p551
(lp552
L2403L
aL2457L
asV178-846-201-861
p553
(lp554
L2002L
asV033-347-045-319
p555
(lp556
L1880L
aL3181L
asV972-124-982-127
p557
(lp558
L1847L
aL5073L
asV163-697-203-708
p559
(lp560
L338L
asV438-705-448-745
p561
(lp562
L4850L
asV429-255-451-239
p563
(lp564
L299L
aL3753L
asV245-945-256-960
p565
(lp566
L132L
asV856-649-867-671
p567
(lp568
L2841L
asV235-847-243-820
p569
(lp570
L3342L
asV346-673-348-697
p571
(lp572
L1841L
asV757-838-777-865
p573
(lp574
L556L
asV024-318-042-298
p575
(lp576
L547L
aL3797L
asV083-805-091-775
p577
(lp578
L3155L
asV283-968-295-950
p579
(lp580
L1478L
asV045-319-063-300
p581
(lp582
L207L
aL2834L
asV676-350-691-357
p583
(lp584
L850L
aL4820L
asV757-084-776-096
p585
(lp586
L880L
aL1727L
asV411-490-413-435
p587
(lp588
L2219L
asV719-281-732-260
p589
(lp590
L4180L
asV260-104-295-133
p591
(lp592
L3355L
aL5308L
asV310-687-330-661
p593
(lp594
L3491L
asV051-277-063-300
p595
(lp596
L237L
aL379L
asV484-256-515-266
p597
(lp598
L886L
aL2286L
asV890-661-910-689
p599
(lp600
L2632L
asV472-101-490-127
p601
(lp602
L1483L
aL1773L
asV757-695-782-763
p603
(lp604
L3638L
asV874-151-888-168
p605
(lp606
L1322L
aL4334L
asV063-300-079-318
p607
(lp608
L2039L
aL3223L
asV268-945-278-933
p609
(lp610
L4776L
asV863-145-872-145
p611
(lp612
L4141L
aL4248L
asV187-929-188-950
p613
(lp614
L2392L
asV742-293-753-302
p615
(lp616
L1250L
aL4281L
asV018-797-065-815
p617
(lp618
L2807L
asV276-680-283-700
p619
(lp620
L1601L
asV323-950-350-954
p621
(lp622
L2350L
asV256-930-276-917
p623
(lp624
L2472L
asV737-402-742-395
p625
(lp626
L909L
aL3309L
asV208-733-218-704
p627
(lp628
L5041L
asV335-249-349-235
p629
(lp630
L254L
aL2130L
asV894-848-928-833
p631
(lp632
L1232L
asV447-316-508-317
p633
(lp634
L962L
aL3001L
asV627-873-648-842
p635
(lp636
L651L
asV107-680-123-659
p637
(lp638
L1460L
asV135-364-138-355
p639
(lp640
L972L
aL4003L
asV638-911-652-879
p641
(lp642
L2145L
asV620-629-649-593
p643
(lp644
L2405L
asV431-830-432-850
p645
(lp646
L2625L
asV906-062-910-051
p647
(lp648
L3107L
aL4264L
asV602-932-608-911
p649
(lp650
L1754L
asV369-801-379-831
p651
(lp652
L4170L
asV895-175-916-176
p653
(lp654
L1671L
aL5340L
asV306-592-322-604
p655
(lp656
L5119L
asV202-763-219-787
p657
(lp658
L3020L
asV279-818-288-844
p659
(lp660
L5429L
asV321-416-363-388
p661
(lp662
L4280L
asV719-371-721-377
p663
(lp664
L2812L
aL3613L
asV818-102-842-126
p665
(lp666
L2038L
aL3232L
asV972-124-980-114
p667
(lp668
L595L
aL1704L
asV200-945-215-967
p669
(lp670
L2888L
asV574-699-601-715
p671
(lp672
L5249L
asV781-353-792-371
p673
(lp674
L2055L
aL3936L
asV800-494-823-465
p675
(lp676
L2010L
asV841-960-847-930
p677
(lp678
L5103L
asV368-691-385-711
p679
(lp680
L1186L
asV782-201-785-206
p681
(lp682
L1739L
aL3346L
asV122-433-166-487
p683
(lp684
L3396L
asV937-054-939-046
p685
(lp686
L782L
aL1410L
asV154-572-158-545
p687
(lp688
L4239L
asV513-144-530-166
p689
(lp690
L550L
aL2638L
asV890-661-894-629
p691
(lp692
L1811L
asV210-198-238-178
p693
(lp694
L1447L
aL2461L
asV451-095-469-087
p695
(lp696
L2018L
aL3302L
asV180-909-211-922
p697
(lp698
L2499L
asV321-416-330-466
p699
(lp700
L3595L
asV375-855-396-823
p701
(lp702
L626L
asV229-968-236-987
p703
(lp704
L1899L
asV227-474-256-550
p705
(lp706
L2505L
asV953-183-962-177
p707
(lp708
L3838L
aL4960L
asV956-111-965-117
p709
(lp710
L489L
aL3350L
asV833-899-847-930
p711
(lp712
L3984L
asV596-618-623-597
p713
(lp714
L5194L
asV256-623-268-645
p715
(lp716
L2025L
asV878-729-929-772
p717
(lp718
L5549L
asV241-602-256-623
p719
(lp720
L1468L
asV155-351-198-351
p721
(lp722
L1264L
aL1859L
asV269-820-277-847
p723
(lp724
L858L
asV269-820-270-786
p725
(lp726
L2296L
asV898-171-910-164
p727
(lp728
L1356L
aL3962L
asV627-333-632-329
p729
(lp730
L2320L
aL2789L
asV657-691-671-665
p731
(lp732
L4040L
asV726-394-738-392
p733
(lp734
L1320L
aL2065L
asV442-301-503-291
p735
(lp736
L2731L
aL3164L
asV489-172-510-185
p737
(lp738
L3253L
aL5058L
asV715-602-758-561
p739
(lp740
L4977L
asV157-655-166-673
p741
(lp742
L1171L
asV327-981-333-961
p743
(lp744
L4153L
asV304-260-335-249
p745
(lp746
L638L
aL5205L
asV663-265-718-281
p747
(lp748
L725L
asV114-823-123-798
p749
(lp750
L2085L
asV199-641-219-641
p751
(lp752
L2076L
asV713-956-734-918
p753
(lp754
L4500L
asV734-918-757-880
p755
(lp756
L4268L
asV874-083-877-077
p757
(lp758
L4669L
aL4693L
asV802-970-820-991
p759
(lp760
L1917L
asV798-552-842-608
p761
(lp762
L3308L
asV805-804-836-848
p763
(lp764
L1940L
asV771-200-782-201
p765
(lp766
L2438L
aL3977L
asV114-823-136-855
p767
(lp768
L3629L
asV842-290-855-302
p769
(lp770
L1301L
aL4966L
asV915-159-928-170
p771
(lp772
L1221L
aL3930L
asV726-301-742-293
p773
(lp774
L562L
aL577L
asV761-358-781-353
p775
(lp776
L4234L
aL4755L
asV766-347-786-347
p777
(lp778
L1934L
aL2189L
asV276-680-309-672
p779
(lp780
L5423L
asV215-525-227-474
p781
(lp782
L3142L
asV823-758-856-735
p783
(lp784
L919L
asV703-377-713-394
p785
(lp786
L2426L
aL3816L
asV890-132-901-125
p787
(lp788
L871L
aL2063L
asV417-655-431-664
p789
(lp790
L5422L
asV829-033-835-036
p791
(lp792
L3010L
aL5215L
asV368-250-390-236
p793
(lp794
L3709L
aL4063L
asV757-880-781-918
p795
(lp796
L1452L
asV265-962-274-948
p797
(lp798
L2114L
asV416-883-449-852
p799
(lp800
L1964L
asV136-855-169-869
p801
(lp802
L2059L
asV747-336-761-358
p803
(lp804
L2647L
asV242-851-247-875
p805
(lp806
L1276L
asV304-295-335-306
p807
(lp808
L1101L
aL4176L
asV470-161-488-142
p809
(lp810
L426L
aL2431L
asV236-134-256-155
p811
(lp812
L1397L
aL2849L
asV199-990-215-967
p813
(lp814
L4101L
asV297-195-337-174
p815
(lp816
L1048L
aL1589L
asV401-690-413-708
p817
(lp818
L4998L
asV134-767-156-740
p819
(lp820
L152L
asV391-318-411-332
p821
(lp822
L2363L
aL3649L
asV861-099-865-103
p823
(lp824
L40L
aL571L
asV777-247-791-235
p825
(lp826
L3964L
aL4548L
asV270-622-285-603
p827
(lp828
L5524L
asV142-801-149-759
p829
(lp830
L3950L
asV071-228-079-242
p831
(lp832
L1955L
aL2764L
asV603-689-623-661
p833
(lp834
L3948L
asV752-214-759-201
p835
(lp836
L740L
aL5465L
asV216-938-230-950
p837
(lp838
L1555L
asV091-775-096-751
p839
(lp840
L2052L
asV625-682-638-659
p841
(lp842
L4029L
asV150-882-169-869
p843
(lp844
L3896L
asV229-968-238-948
p845
(lp846
L5556L
asV372-628-406-605
p847
(lp848
L72L
asV914-878-950-853
p849
(lp850
L4244L
asV779-816-805-855
p851
(lp852
L1963L
asV191-416-227-474
p853
(lp854
L2351L
asV739-282-754-290
p855
(lp856
L4134L
aL4986L
asV948-176-953-183
p857
(lp858
L4576L
aL4848L
asV710-804-733-763
p859
(lp860
L2923L
asV738-346-740-331
p861
(lp862
L4736L
asV385-711-403-734
p863
(lp864
L1098L
asV470-123-488-142
p865
(lp866
L1273L
aL4305L
asV274-948-286-935
p867
(lp868
L615L
asV223-070-245-047
p869
(lp870
L2855L
aL4831L
asV875-911-914-878
p871
(lp872
L1217L
asV085-347-087-334
p873
(lp874
L293L
aL5433L
asV445-815-451-836
p875
(lp876
L3136L
asV075-793-081-770
p877
(lp878
L211L
asV105-375-116-361
p879
(lp880
L3111L
aL4813L
asV658-735-681-687
p881
(lp882
L3729L
asV617-819-640-770
p883
(lp884
L3960L
asV108-706-125-711
p885
(lp886
L2229L
asV208-558-215-525
p887
(lp888
L3262L
asV077-850-079-830
p889
(lp890
L3129L
asV132-831-142-801
p891
(lp892
L5200L
asV375-651-393-647
p893
(lp894
L5112L
asV179-322-256-328
p895
(lp896
L73L
aL4717L
asV795-150-849-164
p897
(lp898
L944L
aL2459L
asV256-876-261-855
p899
(lp900
L1883L
asV111-762-134-767
p901
(lp902
L1206L
asV532-801-554-770
p903
(lp904
L5490L
asV751-283-765-290
p905
(lp906
L737L
aL3528L
asV887-200-888-209
p907
(lp908
L3077L
aL3345L
asV918-048-918-056
p909
(lp910
L1009L
aL3457L
asV723-235-729-220
p911
(lp912
L370L
aL1194L
asV076-710-085-733
p913
(lp914
L2016L
asV229-700-236-679
p915
(lp916
L1639L
asV623-931-638-911
p917
(lp918
L1816L
asV202-110-223-070
p919
(lp920
L5044L
aL5502L
asV758-472-800-494
p921
(lp922
L1001L
asV836-848-862-879
p923
(lp924
L2552L
asV385-182-426-167
p925
(lp926
L2604L
aL4173L
asV077-771-085-733
p927
(lp928
L2422L
asV347-933-353-908
p929
(lp930
L4060L
asV602-588-625-561
p931
(lp932
L2667L
asV348-320-368-329
p933
(lp934
L1553L
aL2348L
asV335-717-355-740
p935
(lp936
L3258L
asV789-172-818-167
p937
(lp938
L528L
aL1855L
asV453-160-468-140
p939
(lp940
L407L
aL3406L
asV854-196-857-182
p941
(lp942
L1827L
aL3093L
asV286-935-301-922
p943
(lp944
L53L
asV959-770-980-801
p945
(lp946
L3273L
asV337-174-352-161
p947
(lp948
L1558L
aL2974L
asV738-346-757-364
p949
(lp950
L2011L
aL4174L
asV246-693-250-723
p951
(lp952
L1615L
asV213-382-256-399
p953
(lp954
L1373L
asV738-865-757-838
p955
(lp956
L1417L
asV130-929-138-907
p957
(lp958
L1248L
asV753-332-766-347
p959
(lp960
L454L
aL3193L
asV390-252-410-236
p961
(lp962
L785L
aL1326L
asV236-987-248-962
p963
(lp964
L4517L
asV757-652-784-683
p965
(lp966
L2282L
asV070-339-079-318
p967
(lp968
L3478L
aL3934L
asV761-358-769-370
p969
(lp970
L605L
aL2164L
asV218-704-235-725
p971
(lp972
L2318L
asV444-266-484-256
p973
(lp974
L2927L
aL3644L
asV049-750-067-704
p975
(lp976
L1850L
asV443-704-461-750
p977
(lp978
L20L
asV576-144-636-160
p979
(lp980
L1084L
aL3897L
asV556-252-573-270
p981
(lp982
L2846L
aL4435L
asV243-071-260-104
p983
(lp984
L4459L
aL4825L
asV724-468-758-441
p985
(lp986
L3898L
asV159-239-209-220
p987
(lp988
L524L
aL3477L
asV676-340-706-346
p989
(lp990
L1242L
aL5521L
asV758-441-790-468
p991
(lp992
L3538L
asV111-351-129-351
p993
(lp994
L2009L
aL3423L
asV708-315-711-330
p995
(lp996
L2344L
asV240-106-253-130
p997
(lp998
L3541L
aL4851L
asV403-734-415-751
p999
(lp1000
L3059L
asV830-055-837-042
p1001
(lp1002
L588L
aL1191L
asV828-433-872-456
p1003
(lp1004
L772L
asV176-717-208-733
p1005
(lp1006
L1864L
asV123-659-143-668
p1007
(lp1008
L793L
asV749-114-764-131
p1009
(lp1010
L2484L
aL2650L
asV844-024-849-028
p1011
(lp1012
L1127L
aL1422L
asV298-614-313-633
p1013
(lp1014
L2434L
asV433-771-446-787
p1015
(lp1016
L1144L
asV757-956-778-970
p1017
(lp1018
L4897L
asV378-120-425-138
p1019
(lp1020
L58L
aL4120L
asV800-602-822-651
p1021
(lp1022
L466L
asV622-506-642-456
p1023
(lp1024
L1520L
asV219-579-230-564
p1025
(lp1026
L4113L
asV234-248-265-234
p1027
(lp1028
L4326L
aL5444L
asV149-320-179-322
p1029
(lp1030
L686L
aL4391L
asV516-310-550-301
p1031
(lp1032
L1566L
aL1760L
asV353-908-361-882
p1033
(lp1034
L3699L
asV313-970-333-961
p1035
(lp1036
L2549L
asV313-990-322-975
p1037
(lp1038
L4147L
asV733-233-753-229
p1039
(lp1040
L4452L
aL4991L
asV769-283-791-292
p1041
(lp1042
L215L
aL4786L
asV343-869-361-882
p1043
(lp1044
L1501L
asV179-961-198-970
p1045
(lp1046
L2598L
asV823-972-834-992
p1047
(lp1048
L892L
asV219-641-230-657
p1049
(lp1050
L2250L
asV163-697-166-673
p1051
(lp1052
L163L
asV833-687-856-735
p1053
(lp1054
L3823L
asV282-630-293-641
p1055
(lp1056
L1808L
asV067-402-076-438
p1057
(lp1058
L3206L
asV931-125-941-116
p1059
(lp1060
L2032L
aL4350L
asV888-168-898-161
p1061
(lp1062
L1910L
aL4751L
asV455-187-470-173
p1063
(lp1064
L557L
aL2533L
asV929-163-936-172
p1065
(lp1066
L1508L
aL5511L
asV822-233-832-225
p1067
(lp1068
L1549L
aL3765L
asV777-213-779-206
p1069
(lp1070
L1751L
aL3524L
asV145-716-176-717
p1071
(lp1072
L3186L
asV117-854-144-872
p1073
(lp1074
L1867L
asV195-285-225-300
p1075
(lp1076
L1104L
aL2526L
asV304-733-336-763
p1077
(lp1078
L2199L
asV827-303-842-290
p1079
(lp1080
L1629L
aL4586L
asV123-798-134-767
p1081
(lp1082
L1297L
asV285-474-297-525
p1083
(lp1084
L2458L
asV894-848-914-878
p1085
(lp1086
L2481L
asV555-313-572-304
p1087
(lp1088
L340L
asV308-472-316-509
p1089
(lp1090
L1905L
asV219-579-241-602
p1091
(lp1092
L5064L
asV709-990-737-970
p1093
(lp1094
L5401L
asV158-908-164-933
p1095
(lp1096
L533L
asV758-146-789-172
p1097
(lp1098
L221L
aL1889L
asV090-226-095-242
p1099
(lp1100
L1419L
aL2377L
asV242-851-251-824
p1101
(lp1102
L4612L
asV067-704-082-675
p1103
(lp1104
L4195L
asV791-235-807-238
p1105
(lp1106
L668L
aL3444L
asV301-922-332-909
p1107
(lp1108
L182L
asV362-759-369-801
p1109
(lp1110
L3844L
asV109-583-126-546
p1111
(lp1112
L3023L
asV875-169-888-168
p1113
(lp1114
L1240L
aL1755L
asV727-324-729-338
p1115
(lp1116
L4094L
asV313-633-339-632
p1117
(lp1118
L356L
asV792-306-803-313
p1119
(lp1120
L1081L
aL2495L
asV835-036-844-035
p1121
(lp1122
L4599L
aL5135L
asV734-383-740-390
p1123
(lp1124
L332L
aL2716L
asV684-801-708-769
p1125
(lp1126
L1162L
asV390-252-409-266
p1127
(lp1128
L1243L
aL4287L
asV741-279-751-266
p1129
(lp1130
L3887L
asV802-956-823-972
p1131
(lp1132
L3285L
asV754-290-765-305
p1133
(lp1134
L374L
aL4916L
asV680-124-703-133
p1135
(lp1136
L687L
aL2879L
asV195-904-216-919
p1137
(lp1138
L336L
asV795-150-823-133
p1139
(lp1140
L618L
aL1072L
asV736-227-746-223
p1141
(lp1142
L968L
aL1063L
asV104-341-113-329
p1143
(lp1144
L1828L
aL4317L
asV930-043-939-046
p1145
(lp1146
L616L
aL3542L
asV272-602-293-579
p1147
(lp1148
L4258L
asV310-899-314-875
p1149
(lp1150
L4427L
asV719-133-739-148
p1151
(lp1152
L532L
aL2538L
asV155-308-173-311
p1153
(lp1154
L926L
aL5161L
asV421-748-429-770
p1155
(lp1156
L4076L
asV867-064-882-064
p1157
(lp1158
L193L
aL5065L
asV264-765-277-725
p1159
(lp1160
L4468L
asV532-801-572-812
p1161
(lp1162
L1535L
asV595-270-612-293
p1163
(lp1164
L1590L
aL3481L
asV238-178-246-198
p1165
(lp1166
L4330L
aL5410L
asV770-214-771-200
p1167
(lp1168
L335L
aL5527L
asV309-708-348-697
p1169
(lp1170
L2226L
asV070-278-095-261
p1171
(lp1172
L3778L
aL5209L
asV822-651-856-649
p1173
(lp1174
L3997L
asV218-159-236-134
p1175
(lp1176
L884L
aL3650L
asV911-131-931-125
p1177
(lp1178
L907L
aL2498L
asV279-765-293-787
p1179
(lp1180
L4747L
asV393-647-417-655
p1181
(lp1182
L2116L
asV719-281-726-301
p1183
(lp1184
L2136L
asV489-159-513-144
p1185
(lp1186
L3185L
aL4547L
asV295-704-304-733
p1187
(lp1188
L78L
asV125-711-143-691
p1189
(lp1190
L3138L
asV837-241-843-237
p1191
(lp1192
L1444L
aL3284L
asV225-300-260-283
p1193
(lp1194
L3672L
aL4946L
asV214-863-215-897
p1195
(lp1196
L4609L
asV754-217-770-214
p1197
(lp1198
L3958L
aL4398L
asV130-929-161-954
p1199
(lp1200
L3054L
asV059-836-065-815
p1201
(lp1202
L2566L
asV782-261-796-263
p1203
(lp1204
L3480L
aL3804L
asV256-960-268-945
p1205
(lp1206
L1083L
asV739-133-758-146
p1207
(lp1208
L3751L
aL5045L
asV890-152-898-161
p1209
(lp1210
L4591L
aL4833L
asV906-046-918-048
p1211
(lp1212
L967L
aL2397L
asV472-101-491-086
p1213
(lp1214
L2172L
aL2341L
asV875-911-889-931
p1215
(lp1216
L4866L
asV939-046-941-035
p1217
(lp1218
L1130L
aL1257L
asV165-274-198-254
p1219
(lp1220
L1270L
aL2994L
asV823-133-853-141
p1221
(lp1222
L720L
aL4286L
asV635-142-673-151
p1223
(lp1224
L2435L
aL5267L
asV950-131-959-125
p1225
(lp1226
L107L
aL1799L
asV296-109-325-093
p1227
(lp1228
L1949L
aL5080L
asV219-641-231-630
p1229
(lp1230
L3803L
asV581-252-595-270
p1231
(lp1232
L1731L
aL3053L
asV454-139-470-123
p1233
(lp1234
L38L
aL3842L
asV368-329-391-318
p1235
(lp1236
L3785L
aL4400L
asV118-260-159-239
p1237
(lp1238
L1402L
aL3910L
asV256-550-282-564
p1239
(lp1240
L1056L
asV578-318-594-324
p1241
(lp1242
L4836L
aL5473L
asV837-042-849-035
p1243
(lp1244
L2329L
aL5359L
asV890-076-906-062
p1245
(lp1246
L4169L
aL4913L
asV640-630-659-649
p1247
(lp1248
L2467L
asV258-296-303-282
p1249
(lp1250
L840L
aL4424L
asV703-133-720-150
p1251
(lp1252
L3454L
aL5482L
asV396-823-419-775
p1253
(lp1254
L3470L
asV373-961-387-952
p1255
(lp1256
L3380L
asV087-334-104-341
p1257
(lp1258
L3211L
aL4151L
asV335-263-347-249
p1259
(lp1260
L3949L
aL5512L
asV285-603-298-614
p1261
(lp1262
L31L
asV227-603-242-621
p1263
(lp1264
L4469L
asV038-778-064-787
p1265
(lp1266
L5068L
asV711-330-715-343
p1267
(lp1268
L5417L
asV759-224-770-220
p1269
(lp1270
L2352L
aL3215L
asV152-834-157-800
p1271
(lp1272
L5338L
asV399-762-403-734
p1273
(lp1274
L1550L
asV062-241-066-258
p1275
(lp1276
L663L
aL2387L
asV847-930-875-911
p1277
(lp1278
L1423L
asV775-187-778-193
p1279
(lp1280
L4399L
aL5356L
asV061-852-094-883
p1281
(lp1282
L3290L
asV703-133-718-117
p1283
(lp1284
L2102L
aL2447L
asV764-204-766-194
p1285
(lp1286
L2417L
aL5552L
asV776-195-778-193
p1287
(lp1288
L3099L
aL4415L
asV889-561-910-588
p1289
(lp1290
L2370L
asV669-243-705-246
p1291
(lp1292
L4307L
aL5332L
asV732-260-742-257
p1293
(lp1294
L3102L
aL4224L
asV913-108-920-115
p1295
(lp1296
L439L
aL3908L
asV221-819-234-786
p1297
(lp1298
L4254L
asV253-312-302-323
p1299
(lp1300
L5477L
aL5503L
asV260-258-303-282
p1301
(lp1302
L3408L
aL5069L
asV704-704-733-763
p1303
(lp1304
L503L
asV033-277-042-298
p1305
(lp1306
L174L
aL4049L
asV067-402-122-433
p1307
(lp1308
L2017L
asV753-229-761-227
p1309
(lp1310
L4662L
aL5470L
asV735-252-748-255
p1311
(lp1312
L874L
aL5034L
asV855-074-867-064
p1313
(lp1314
L1202L
aL5298L
asV853-175-862-181
p1315
(lp1316
L204L
aL4914L
asV345-138-378-120
p1317
(lp1318
L903L
aL2562L
asV204-075-228-044
p1319
(lp1320
L181L
aL1781L
asV655-294-683-326
p1321
(lp1322
L795L
aL1982L
asV718-281-726-301
p1323
(lp1324
L2525L
asV786-347-795-359
p1325
(lp1326
L855L
aL5276L
asV354-655-372-628
p1327
(lp1328
L4354L
asV822-233-837-241
p1329
(lp1330
L1635L
aL4132L
asV175-882-182-863
p1331
(lp1332
L3700L
asV256-946-271-932
p1333
(lp1334
L352L
asV720-254-736-247
p1335
(lp1336
L1849L
aL2872L
asV804-082-822-063
p1337
(lp1338
L1441L
aL3105L
asV718-281-732-260
p1339
(lp1340
L905L
asV939-109-950-116
p1341
(lp1342
L3824L
aL5439L
asV849-028-860-023
p1343
(lp1344
L517L
aL3148L
asV601-253-615-272
p1345
(lp1346
L1606L
aL2111L
asV335-263-349-283
p1347
(lp1348
L42L
aL3369L
asV855-302-863-303
p1349
(lp1350
L2794L
aL4781L
asV815-249-822-233
p1351
(lp1352
L2235L
aL3218L
asV667-930-713-956
p1353
(lp1354
L4725L
asV198-875-202-899
p1355
(lp1356
L253L
asV242-786-249-765
p1357
(lp1358
L1619L
asV636-160-677-169
p1359
(lp1360
L2804L
aL3971L
asV404-549-422-574
p1361
(lp1362
L2455L
asV090-318-106-298
p1363
(lp1364
L752L
aL5291L
asV904-911-936-889
p1365
(lp1366
L5357L
asV446-787-471-778
p1367
(lp1368
L733L
asV757-250-782-261
p1369
(lp1370
L4008L
aL4365L
asV322-604-338-617
p1371
(lp1372
L3013L
asV881-057-893-058
p1373
(lp1374
L1113L
aL4546L
asV855-289-862-293
p1375
(lp1376
L1987L
aL4988L
asV850-195-853-175
p1377
(lp1378
L22L
aL604L
asV385-711-402-706
p1379
(lp1380
L3890L
asV841-077-868-082
p1381
(lp1382
L3789L
aL4129L
asV737-402-738-392
p1383
(lp1384
L693L
aL5226L
asV442-301-516-310
p1385
(lp1386
L2574L
aL3052L
asV190-604-206-592
p1387
(lp1388
L5372L
asV620-848-643-813
p1389
(lp1390
L3929L
asV108-315-133-296
p1391
(lp1392
L613L
aL4429L
asV866-104-888-124
p1393
(lp1394
L1172L
aL3032L
asV234-933-245-945
p1395
(lp1396
L1533L
asV244-645-256-623
p1397
(lp1398
L1432L
asV831-077-838-073
p1399
(lp1400
L157L
aL412L
asV278-786-291-819
p1401
(lp1402
L1244L
asV679-848-702-921
p1403
(lp1404
L3518L
asV226-917-242-932
p1405
(lp1406
L1405L
asV734-316-740-331
p1407
(lp1408
L3780L
asV435-280-503-291
p1409
(lp1410
L2210L
aL3768L
asV640-770-684-801
p1411
(lp1412
L1099L
asV367-668-388-659
p1413
(lp1414
L3807L
asV271-890-276-917
p1415
(lp1416
L1873L
asV193-178-210-198
p1417
(lp1418
L129L
aL1166L
asV316-795-336-763
p1419
(lp1420
L4791L
asV764-204-771-200
p1421
(lp1422
L128L
aL846L
asV337-971-350-954
p1423
(lp1424
L606L
asV741-279-752-266
p1425
(lp1426
L1193L
asV573-270-590-290
p1427
(lp1428
L2315L
aL2842L
asV363-388-389-433
p1429
(lp1430
L1154L
asV090-643-112-628
p1431
(lp1432
L2877L
asV192-235-229-229
p1433
(lp1434
L2150L
aL2615L
asV303-282-335-263
p1435
(lp1436
L631L
aL5369L
asV174-617-190-604
p1437
(lp1438
L4446L
asV890-070-893-058
p1439
(lp1440
L2803L
aL5118L
asV404-549-429-491
p1441
(lp1442
L1651L
asV708-315-711-329
p1443
(lp1444
L3057L
asV923-108-941-116
p1445
(lp1446
L1137L
aL2806L
asV224-844-233-818
p1447
(lp1448
L1988L
asV285-474-321-416
p1449
(lp1450
L3635L
asV376-767-387-798
p1451
(lp1452
L3800L
asV877-077-882-064
p1453
(lp1454
L3405L
aL5056L
asV178-846-208-820
p1455
(lp1456
L2060L
asV953-183-961-187
p1457
(lp1458
L1241L
aL2077L
asV293-641-313-641
p1459
(lp1460
L1073L
asV277-725-279-765
p1461
(lp1462
L2158L
asV545-282-573-270
p1463
(lp1464
L194L
aL3426L
asV822-370-827-376
p1465
(lp1466
L264L
aL377L
asV349-263-370-282
p1467
(lp1468
L993L
aL1772L
asV283-950-296-938
p1469
(lp1470
L554L
asV110-356-111-351
p1471
(lp1472
L648L
aL4920L
asV792-306-805-292
p1473
(lp1474
L2133L
aL4241L
asV426-081-451-095
p1475
(lp1476
L5015L
aL5349L
asV636-251-663-265
p1477
(lp1478
L1570L
aL4789L
asV085-347-087-361
p1479
(lp1480
L176L
aL1830L
asV355-740-376-767
p1481
(lp1482
L4436L
asV616-260-637-269
p1483
(lp1484
L1561L
aL4800L
asV274-948-283-968
p1485
(lp1486
L1809L
asV691-357-706-364
p1487
(lp1488
L3611L
aL4098L
asV781-918-802-956
p1489
(lp1490
L1332L
asV391-304-411-291
p1491
(lp1492
L1856L
aL4000L
asV736-168-758-146
p1493
(lp1494
L1387L
aL2430L
asV068-367-070-354
p1495
(lp1496
L2232L
aL3224L
asV271-766-278-786
p1497
(lp1498
L4377L
asV710-855-734-918
p1499
(lp1500
L4743L
asV355-740-366-716
p1501
(lp1502
L1693L
asV572-101-628-095
p1503
(lp1504
L2739L
aL3880L
asV867-671-885-701
p1505
(lp1506
L3967L
asV064-787-077-771
p1507
(lp1508
L4053L
asV084-260-105-243
p1509
(lp1510
L3676L
aL5113L
asV200-945-211-922
p1511
(lp1512
L2147L
asV297-967-312-945
p1513
(lp1514
L669L
asV113-329-133-313
p1515
(lp1516
L1918L
aL3865L
asV231-630-244-645
p1517
(lp1518
L3428L
asV724-641-758-609
p1519
(lp1520
L1176L
asV195-795-208-820
p1521
(lp1522
L5488L
asV236-917-241-890
p1523
(lp1524
L2646L
asV111-882-112-908
p1525
(lp1526
L1274L
asV387-798-396-823
p1527
(lp1528
L2815L
asV249-765-256-722
p1529
(lp1530
L2916L
asV353-545-357-572
p1531
(lp1532
L4236L
asV293-579-306-592
p1533
(lp1534
L4370L
asV097-343-118-349
p1535
(lp1536
L1842L
aL5317L
asV606-558-622-506
p1537
(lp1538
L3006L
asV258-075-296-109
p1539
(lp1540
L146L
aL4969L
asV368-250-389-265
p1541
(lp1542
L1398L
aL1707L
asV079-318-096-332
p1543
(lp1544
L1494L
aL2216L
asV594-324-615-321
p1545
(lp1546
L2890L
aL4285L
asV445-815-491-797
p1547
(lp1548
L3090L
asV111-762-123-798
p1549
(lp1550
L2947L
asV093-911-130-929
p1551
(lp1552
L3776L
asV838-189-849-164
p1553
(lp1554
L168L
aL1480L
asV343-832-351-854
p1555
(lp1556
L99L
asV352-161-380-140
p1557
(lp1558
L2970L
aL4096L
asV252-855-256-876
p1559
(lp1560
L3395L
asV369-305-391-293
p1561
(lp1562
L3279L
aL5532L
asV392-281-411-291
p1563
(lp1564
L1893L
aL2256L
asV680-124-698-100
p1565
(lp1566
L941L
aL2273L
asV064-787-066-745
p1567
(lp1568
L5272L
asV562-853-599-878
p1569
(lp1570
L1715L
asV402-706-403-734
p1571
(lp1572
L408L
asV271-932-286-917
p1573
(lp1574
L2844L
asV202-687-229-700
p1575
(lp1576
L5141L
asV782-369-795-381
p1577
(lp1578
L867L
aL2331L
asV835-036-844-024
p1579
(lp1580
L4551L
aL5254L
asV590-290-614-307
p1581
(lp1582
L10L
aL5082L
asV227-474-256-430
p1583
(lp1584
L2261L
asV279-177-313-157
p1585
(lp1586
L1331L
aL1975L
asV826-960-834-973
p1587
(lp1588
L2897L
asV411-332-447-316
p1589
(lp1590
L978L
aL5339L
asV890-597-916-618
p1591
(lp1592
L3993L
asV095-813-117-854
p1593
(lp1594
L2494L
asV490-127-513-144
p1595
(lp1596
L366L
aL1481L
asV158-294-177-299
p1597
(lp1598
L469L
aL4056L
asV816-305-836-311
p1599
(lp1600
L3359L
aL4182L
asV496-241-522-256
p1601
(lp1602
L2843L
aL3600L
asV860-023-860-032
p1603
(lp1604
L1676L
aL5026L
asV711-330-727-324
p1605
(lp1606
L593L
asV894-207-895-215
p1607
(lp1608
L1491L
aL5055L
asV268-645-282-630
p1609
(lp1610
L1510L
asV070-339-070-354
p1611
(lp1612
L442L
aL914L
asV112-932-138-944
p1613
(lp1614
L3734L
asV219-109-243-071
p1615
(lp1616
L1205L
aL4643L
asV157-655-199-641
p1617
(lp1618
L3573L
asV392-281-409-266
p1619
(lp1620
L2873L
aL4009L
asV112-628-117-647
p1621
(lp1622
L2399L
asV667-930-681-899
p1623
(lp1624
L3005L
asV105-605-139-628
p1625
(lp1626
L1985L
asV412-729-413-708
p1627
(lp1628
L4209L
asV493-103-513-129
p1629
(lp1630
L1551L
aL4191L
asV679-848-710-804
p1631
(lp1632
L520L
asV692-758-704-704
p1633
(lp1634
L4507L
asV189-337-260-345
p1635
(lp1636
L965L
aL1134L
asV160-854-182-863
p1637
(lp1638
L461L
asV424-686-438-705
p1639
(lp1640
L2587L
asV410-281-427-266
p1641
(lp1642
L343L
aL4100L
asV920-041-930-043
p1643
(lp1644
L2414L
aL5363L
asV773-366-782-376
p1645
(lp1646
L124L
aL4748L
asV879-192-884-204
p1647
(lp1648
L1785L
aL3479L
asV304-733-335-717
p1649
(lp1650
L5426L
asV901-125-910-115
p1651
(lp1652
L820L
aL3525L
asV096-751-107-734
p1653
(lp1654
L2246L
asV435-280-480-267
p1655
(lp1656
L4798L
aL4948L
asV165-274-195-285
p1657
(lp1658
L1709L
aL2115L
asV842-290-855-285
p1659
(lp1660
L4534L
aL5485L
asV081-374-087-361
p1661
(lp1662
L828L
aL1018L
asV411-291-435-280
p1663
(lp1664
L1091L
aL3581L
asV091-775-114-823
p1665
(lp1666
L2757L
asV256-960-265-984
p1667
(lp1668
L2692L
asV516-310-551-320
p1669
(lp1670
L39L
aL1418L
asV173-797-185-825
p1671
(lp1672
L1292L
asV455-172-470-161
p1673
(lp1674
L3983L
aL4082L
asV824-254-830-246
p1675
(lp1676
L3663L
aL4794L
asV470-161-489-172
p1677
(lp1678
L2087L
aL2793L
asV252-855-256-826
p1679
(lp1680
L1697L
asV325-093-378-120
p1681
(lp1682
L2451L
aL3252L
asV862-879-875-911
p1683
(lp1684
L5018L
asV211-922-226-935
p1685
(lp1686
L2535L
asV585-772-636-729
p1687
(lp1688
L3015L
asV738-346-739-330
p1689
(lp1690
L1716L
asV706-364-719-371
p1691
(lp1692
L3543L
aL3828L
asV896-109-910-115
p1693
(lp1694
L1330L
aL5110L
asV515-104-533-086
p1695
(lp1696
L2253L
aL4161L
asV129-351-155-351
p1697
(lp1698
L333L
aL1042L
asV156-740-176-763
p1699
(lp1700
L921L
asV374-952-389-945
p1701
(lp1702
L2792L
asV301-845-311-861
p1703
(lp1704
L837L
asV236-679-256-661
p1705
(lp1706
L1115L
asV097-708-109-690
p1707
(lp1708
L2340L
asV822-063-829-071
p1709
(lp1710
L3885L
aL4351L
asV434-438-442-402
p1711
(lp1712
L2576L
asV277-725-295-704
p1713
(lp1714
L3630L
asV206-592-219-579
p1715
(lp1716
L4939L
asV125-711-145-716
p1717
(lp1718
L2922L
asV373-907-380-929
p1719
(lp1720
L2555L
asV673-608-717-552
p1721
(lp1722
L1361L
asV754-245-777-247
p1723
(lp1724
L3590L
aL4762L
asV286-917-286-935
p1725
(lp1726
L4328L
asV532-130-576-144
p1727
(lp1728
L1665L
aL3120L
asV086-699-095-674
p1729
(lp1730
L5260L
asV904-911-909-932
p1731
(lp1732
L622L
asV811-704-823-758
p1733
(lp1734
L5043L
asV070-278-079-299
p1735
(lp1736
L3811L
aL5293L
asV097-435-141-481
p1737
(lp1738
L3333L
asV728-324-729-338
p1739
(lp1740
L4284L
asV256-661-276-680
p1741
(lp1742
L2953L
asV335-717-366-716
p1743
(lp1744
L2786L
asV415-858-416-883
p1745
(lp1746
L714L
asV889-931-899-946
p1747
(lp1748
L3264L
asV183-550-196-509
p1749
(lp1750
L3576L
asV088-574-107-549
p1751
(lp1752
L2573L
asV239-157-255-176
p1753
(lp1754
L387L
aL4039L
asV853-141-862-138
p1755
(lp1756
L696L
aL3416L
asV812-921-836-848
p1757
(lp1758
L5030L
asV411-291-442-301
p1759
(lp1760
L97L
aL1003L
asV431-830-435-793
p1761
(lp1762
L2200L
asV718-117-734-096
p1763
(lp1764
L670L
aL3906L
asV336-763-354-800
p1765
(lp1766
L4910L
asV120-337-143-341
p1767
(lp1768
L1482L
aL3533L
asV807-386-815-381
p1769
(lp1770
L661L
aL1256L
asV614-307-631-323
p1771
(lp1772
L936L
aL3867L
asV692-972-713-956
p1773
(lp1774
L5220L
asV693-651-715-602
p1775
(lp1776
L3229L
asV271-659-280-645
p1777
(lp1778
L2300L
asV885-701-917-740
p1779
(lp1780
L2213L
asV399-762-415-751
p1781
(lp1782
L2034L
asV575-164-616-186
p1783
(lp1784
L1834L
aL1953L
asV546-295-571-287
p1785
(lp1786
L1649L
aL2740L
asV837-023-844-024
p1787
(lp1788
L2191L
aL4050L
asV780-439-823-465
p1789
(lp1790
L1385L
asV370-481-413-435
p1791
(lp1792
L3788L
asV830-801-866-842
p1793
(lp1794
L2207L
asV201-861-211-845
p1795
(lp1796
L821L
asV347-249-369-238
p1797
(lp1798
L652L
aL4422L
asV913-715-938-699
p1799
(lp1800
L2220L
asV277-847-285-865
p1801
(lp1802
L459L
asV169-598-176-572
p1803
(lp1804
L2729L
asV346-487-353-545
p1805
(lp1806
L5480L
asV743-249-757-250
p1807
(lp1808
L2958L
aL4314L
asV945-189-953-183
p1809
(lp1810
L2500L
aL5158L
asV387-798-399-762
p1811
(lp1812
L2532L
asV945-124-950-116
p1813
(lp1814
L1990L
aL5098L
asV534-147-575-164
p1815
(lp1816
L351L
aL2217L
asV232-645-241-659
p1817
(lp1818
L4220L
asV291-819-301-845
p1819
(lp1820
L59L
asV179-961-184-981
p1821
(lp1822
L1814L
asV652-879-679-848
p1823
(lp1824
L4619L
asV182-661-217-655
p1825
(lp1826
L2649L
asV176-763-195-795
p1827
(lp1828
L5287L
asV782-763-805-804
p1829
(lp1830
L3256L
asV373-540-399-485
p1831
(lp1832
L5269L
asV202-110-218-139
p1833
(lp1834
L1667L
aL3348L
asV698-100-718-117
p1835
(lp1836
L712L
aL4900L
asV293-787-310-763
p1837
(lp1838
L5050L
asV861-099-870-125
p1839
(lp1840
L4142L
aL4894L
asV740-390-742-395
p1841
(lp1842
L776L
aL3354L
asV630-944-646-932
p1843
(lp1844
L1199L
asV087-280-118-260
p1845
(lp1846
L260L
aL3868L
asV088-574-105-605
p1847
(lp1848
L713L
asV913-181-929-179
p1849
(lp1850
L3076L
aL5101L
asV503-291-545-282
p1851
(lp1852
L576L
aL2782L
asV655-352-676-350
p1853
(lp1854
L1877L
aL5245L
asV731-990-757-970
p1855
(lp1856
L5448L
asV066-258-070-278
p1857
(lp1858
L234L
aL4971L
asV255-176-280-156
p1859
(lp1860
L596L
aL5087L
asV636-729-657-691
p1861
(lp1862
L2180L
asV860-091-868-082
p1863
(lp1864
L870L
aL4124L
asV211-845-221-819
p1865
(lp1866
L2112L
asV806-254-824-254
p1867
(lp1868
L1089L
aL1450L
asV929-179-936-172
p1869
(lp1870
L4629L
aL5330L
asV585-833-605-803
p1871
(lp1872
L4093L
asV349-283-369-294
p1873
(lp1874
L4213L
aL4981L
asV648-842-684-801
p1875
(lp1876
L1992L
asV443-647-443-704
p1877
(lp1878
L5403L
asV681-687-704-704
p1879
(lp1880
L5088L
asV469-188-489-172
p1881
(lp1882
L2284L
aL4692L
asV508-317-553-327
p1883
(lp1884
L578L
aL5031L
asV368-319-391-304
p1885
(lp1886
L1043L
aL4396L
asV711-329-715-343
p1887
(lp1888
L1054L
asV711-329-728-324
p1889
(lp1890
L2680L
asV939-046-948-045
p1891
(lp1892
L187L
aL477L
asV234-765-235-725
p1893
(lp1894
L3179L
asV343-869-375-855
p1895
(lp1896
L5335L
asV436-739-444-771
p1897
(lp1898
L1839L
asV182-863-198-875
p1899
(lp1900
L2641L
asV892-424-907-455
p1901
(lp1902
L5547L
asV338-617-372-628
p1903
(lp1904
L2072L
asV066-647-067-704
p1905
(lp1906
L632L
asV942-169-948-176
p1907
(lp1908
L2272L
aL4616L
asV258-075-282-057
p1909
(lp1910
L829L
aL2723L
asV366-716-385-711
p1911
(lp1912
L3204L
asV758-561-800-602
p1913
(lp1914
L5020L
asV860-135-870-125
p1915
(lp1916
L3371L
aL4902L
asV370-481-373-540
p1917
(lp1918
L4483L
asV734-316-739-330
p1919
(lp1920
L4262L
asV771-200-776-193
p1921
(lp1922
L233L
aL2634L
asV242-786-243-820
p1923
(lp1924
L1576L
asV284-894-285-865
p1925
(lp1926
L5326L
asV739-956-757-921
p1927
(lp1928
L1339L
asV879-111-901-125
p1929
(lp1930
L1161L
aL1824L
asV258-296-302-306
p1931
(lp1932
L1628L
aL3763L
asV391-318-412-303
p1933
(lp1934
L1475L
aL4608L
asV663-265-719-281
p1935
(lp1936
L2312L
asV815-381-823-385
p1937
(lp1938
L1862L
aL4371L
asV746-223-752-214
p1939
(lp1940
L2355L
aL3490L
asV726-401-736-406
p1941
(lp1942
L4709L
aL4744L
asV929-772-959-770
p1943
(lp1944
L484L
asV427-157-455-172
p1945
(lp1946
L236L
aL5154L
asV805-292-827-303
p1947
(lp1948
L105L
aL190L
asV236-917-256-930
p1949
(lp1950
L4923L
asV198-254-227-278
p1951
(lp1952
L1597L
aL5292L
asV353-908-399-882
p1953
(lp1954
L3286L
asV138-540-141-481
p1955
(lp1956
L2749L
asV191-416-213-382
p1957
(lp1958
L5117L
asV282-657-293-641
p1959
(lp1960
L502L
asV302-306-333-322
p1961
(lp1962
L1919L
aL5191L
asV096-332-108-315
p1963
(lp1964
L857L
aL1307L
asV412-729-421-748
p1965
(lp1966
L2616L
asV066-771-074-739
p1967
(lp1968
L367L
asV758-609-791-641
p1969
(lp1970
L3493L
asV094-883-095-858
p1971
(lp1972
L5185L
asV256-328-304-336
p1973
(lp1974
L3694L
aL5136L
asV836-311-845-304
p1975
(lp1976
L2960L
aL5443L
asV807-284-823-291
p1977
(lp1978
L698L
aL2622L
asV632-329-655-352
p1979
(lp1980
L169L
aL4278L
asV126-546-154-572
p1981
(lp1982
L4550L
asV097-368-110-356
p1983
(lp1984
L3831L
aL5139L
asV082-384-097-368
p1985
(lp1986
L4758L
aL5452L
asV811-704-833-687
p1987
(lp1988
L2610L
asV907-455-944-438
p1989
(lp1990
L1668L
asV491-086-515-104
p1991
(lp1992
L3928L
aL4237L
asV083-805-097-841
p1993
(lp1994
L5504L
asV871-813-894-848
p1995
(lp1996
L1321L
asV369-294-392-281
p1997
(lp1998
L2177L
aL5242L
asV757-921-776-956
p1999
(lp2000
L1958L
asV910-663-938-699
p2001
(lp2002
L798L
asV276-917-297-897
p2003
(lp2004
L3366L
asV090-748-099-729
p2005
(lp2006
L1643L
asV695-991-712-970
p2007
(lp2008
L2090L
asV057-407-061-442
p2009
(lp2010
L1487L
asV429-491-434-438
p2011
(lp2012
L3981L
asV743-237-756-231
p2013
(lp2014
L2847L
aL3799L
asV692-465-734-439
p2015
(lp2016
L918L
asV323-950-325-929
p2017
(lp2018
L2393L
asV733-763-757-695
p2019
(lp2020
L1517L
asV176-763-208-733
p2021
(lp2022
L2160L
asV215-897-216-919
p2023
(lp2024
L2304L
asV551-320-576-324
p2025
(lp2026
L1655L
aL5168L
asV096-751-111-762
p2027
(lp2028
L2645L
asV265-875-271-851
p2029
(lp2030
L1885L
asV630-312-653-330
p2031
(lp2032
L2575L
aL2623L
asV638-911-667-930
p2033
(lp2034
L3383L
asV692-465-715-494
p2035
(lp2036
L3473L
asV176-572-183-550
p2037
(lp2038
L4838L
asV752-214-763-209
p2039
(lp2040
L4228L
aL5212L
asV175-882-202-899
p2041
(lp2042
L722L
asV784-683-822-651
p2043
(lp2044
L70L
asV304-820-333-846
p2045
(lp2046
L1865L
asV429-770-435-793
p2047
(lp2048
L493L
asV385-671-401-690
p2049
(lp2050
L3305L
asV256-791-261-824
p2051
(lp2052
L4302L
asV737-970-757-956
p2053
(lp2054
L5407L
asV451-239-484-256
p2055
(lp2056
L2697L
aL4906L
asV576-889-608-911
p2057
(lp2058
L2019L
asV797-257-810-259
p2059
(lp2060
L166L
aL1981L
asV288-988-297-967
p2061
(lp2062
L3957L
asV081-770-090-748
p2063
(lp2064
L2542L
asV630-295-647-313
p2065
(lp2066
L1584L
asV891-506-932-460
p2067
(lp2068
L2756L
asV288-084-320-063
p2069
(lp2070
L694L
aL1821L
asV550-301-570-299
p2071
(lp2072
L568L
aL1686L
asV778-970-806-990
p2073
(lp2074
L4896L
asV742-257-751-266
p2075
(lp2076
L3519L
asV623-597-645-560
p2077
(lp2078
L3895L
asV385-546-411-490
p2079
(lp2080
L2452L
asV131-241-172-222
p2081
(lp2082
L2754L
aL3312L
asV296-919-317-904
p2083
(lp2084
L1378L
asV230-564-256-550
p2085
(lp2086
L751L
asV596-318-614-307
p2087
(lp2088
L3231L
aL5509L
asV642-456-687-433
p2089
(lp2090
L1673L
asV111-882-158-908
p2091
(lp2092
L3402L
asV607-455-622-424
p2093
(lp2094
L1991L
asV615-272-630-295
p2095
(lp2096
L849L
aL1767L
asV256-826-261-855
p2097
(lp2098
L2936L
asV256-550-285-474
p2099
(lp2100
L3191L
asV271-196-309-175
p2101
(lp2102
L179L
aL3637L
asV580-460-622-506
p2103
(lp2104
L515L
asV585-833-620-848
p2105
(lp2106
L3521L
asV329-863-351-854
p2107
(lp2108
L1993L
asV118-349-120-337
p2109
(lp2110
L510L
aL3961L
asV489-172-511-161
p2111
(lp2112
L1406L
aL2298L
asV409-266-429-255
p2113
(lp2114
L2910L
aL3593L
asV786-108-804-082
p2115
(lp2116
L1740L
aL2301L
asV335-306-348-320
p2117
(lp2118
L2630L
aL5102L
asV734-096-749-114
p2119
(lp2120
L3307L
aL4496L
asV597-740-629-701
p2121
(lp2122
L5516L
asV864-202-873-195
p2123
(lp2124
L2582L
aL2892L
asV175-882-180-909
p2125
(lp2126
L1064L
asV820-036-835-029
p2127
(lp2128
L3870L
aL4164L
asV314-875-329-863
p2129
(lp2130
L2466L
asV742-257-752-266
p2131
(lp2132
L809L
asV264-765-270-786
p2133
(lp2134
L2335L
asV876-659-889-682
p2135
(lp2136
L997L
asV781-918-805-855
p2137
(lp2138
L5227L
asV079-664-093-655
p2139
(lp2140
L4250L
asV803-356-811-366
p2141
(lp2142
L863L
aL2784L
asV189-975-199-990
p2143
(lp2144
L3693L
asV838-561-865-593
p2145
(lp2146
L551L
asV701-148-722-169
p2147
(lp2148
L3615L
aL4472L
asV673-151-701-170
p2149
(lp2150
L691L
aL2717L
asV865-593-894-629
p2151
(lp2152
L4996L
asV748-255-761-266
p2153
(lp2154
L3627L
aL4593L
asV710-855-736-816
p2155
(lp2156
L4992L
asV872-131-888-124
p2157
(lp2158
L841L
aL3810L
asV335-306-350-295
p2159
(lp2160
L585L
aL5067L
asV143-691-145-716
p2161
(lp2162
L3623L
asV833-228-840-229
p2163
(lp2164
L1309L
aL2151L
asV636-123-675-135
p2165
(lp2166
L2391L
aL5214L
asV227-278-260-258
p2167
(lp2168
L1941L
aL4475L
asV351-854-379-831
p2169
(lp2170
L5186L
asV336-763-355-740
p2171
(lp2172
L1838L
asV555-313-571-304
p2173
(lp2174
L4489L
asV758-493-798-552
p2175
(lp2176
L735L
asV612-293-630-312
p2177
(lp2178
L2561L
aL2967L
asV325-929-332-909
p2179
(lp2180
L2848L
asV128-346-149-345
p2181
(lp2182
L3836L
aL5362L
asV867-932-882-944
p2183
(lp2184
L5264L
asV858-691-878-729
p2185
(lp2186
L4503L
asV297-897-298-863
p2187
(lp2188
L462L
asV095-693-107-680
p2189
(lp2190
L2108L
asV389-433-442-402
p2191
(lp2192
L1978L
asV792-242-815-249
p2193
(lp2194
L1666L
aL3246L
asV299-382-321-416
p2195
(lp2196
L3578L
asV199-633-214-614
p2197
(lp2198
L4017L
asV637-269-655-294
p2199
(lp2200
L421L
aL937L
asV419-775-427-805
p2201
(lp2202
L805L
asV332-909-337-882
p2203
(lp2204
L830L
asV161-954-188-950
p2205
(lp2206
L2983L
asV866-842-887-873
p2207
(lp2208
L13L
asV214-863-224-844
p2209
(lp2210
L5354L
asV573-127-635-142
p2211
(lp2212
L2231L
aL3384L
asV235-725-249-765
p2213
(lp2214
L2546L
asV295-133-343-118
p2215
(lp2216
L1721L
aL3489L
asV241-890-247-875
p2217
(lp2218
L2125L
asV215-967-224-988
p2219
(lp2220
L1737L
asV428-675-443-704
p2221
(lp2222
L170L
asV764-131-786-108
p2223
(lp2224
L642L
aL3943L
asV849-035-860-032
p2225
(lp2226
L3139L
aL4432L
asV196-509-204-472
p2227
(lp2228
L3165L
asV406-605-443-647
p2229
(lp2230
L4980L
asV256-766-262-792
p2231
(lp2232
L3851L
asV311-861-333-846
p2233
(lp2234
L1960L
asV309-175-338-160
p2235
(lp2236
L2745L
aL4177L
asV256-430-285-474
p2237
(lp2238
L3472L
asV855-074-877-077
p2239
(lp2240
L2945L
aL4982L
asV425-733-433-771
p2241
(lp2242
L1235L
asV771-196-775-187
p2243
(lp2244
L4541L
aL5192L
asV615-321-627-329
p2245
(lp2246
L2303L
aL5094L
asV313-157-345-138
p2247
(lp2248
L991L
aL2290L
asV107-734-108-706
p2249
(lp2250
L1556L
asV263-891-267-915
p2251
(lp2252
L1400L
asV075-881-112-908
p2253
(lp2254
L1045L
asV869-560-890-597
p2255
(lp2256
L4115L
asV415-674-424-699
p2257
(lp2258
L2898L
asV133-296-165-274
p2259
(lp2260
L323L
aL3937L
asV184-981-192-992
p2261
(lp2262
L2412L
asV807-769-830-801
p2263
(lp2264
L617L
asV739-323-747-336
p2265
(lp2266
L3026L
asV180-909-187-929
p2267
(lp2268
L2194L
asV366-716-368-691
p2269
(lp2270
L531L
asV753-229-754-217
p2271
(lp2272
L2571L
aL4701L
asV722-169-739-148
p2273
(lp2274
L1008L
aL5515L
asV218-139-240-106
p2275
(lp2276
L3647L
aL4256L
asV691-357-695-347
p2277
(lp2278
L2236L
aL5288L
asV802-956-847-930
p2279
(lp2280
L2648L
asV515-266-545-282
p2281
(lp2282
L1366L
aL3377L
asV599-878-638-911
p2283
(lp2284
L2838L
asV532-130-572-101
p2285
(lp2286
L1845L
aL4466L
asV791-292-807-284
p2287
(lp2288
L678L
aL4829L
asV107-734-111-762
p2289
(lp2290
L1534L
asV415-674-428-675
p2291
(lp2292
L3915L
asV380-929-417-911
p2293
(lp2294
L2427L
asV840-509-869-560
p2295
(lp2296
L3071L
asV139-628-157-655
p2297
(lp2298
L5286L
asV081-491-107-549
p2299
(lp2300
L2128L
asV727-376-734-383
p2301
(lp2302
L2047L
aL3912L
asV133-313-158-294
p2303
(lp2304
L3007L
aL3340L
asV572-812-585-772
p2305
(lp2306
L4055L
asV782-201-785-192
p2307
(lp2308
L3598L
aL3972L
asV761-266-784-266
p2309
(lp2310
L580L
aL5379L
asV551-816-585-833
p2311
(lp2312
L2580L
asV427-157-454-139
p2313
(lp2314
L583L
aL1131L
asV215-897-236-917
p2315
(lp2316
L3963L
asV910-663-916-618
p2317
(lp2318
L1950L
asV909-803-928-833
p2319
(lp2320
L1180L
asV256-399-299-382
p2321
(lp2322
L2851L
assVheadMesh
p2323
(dp2324
V294-777-321-793
p2325
(lp2326
L1505L
asV329-368-349-307
p2327
(lp2328
L1367L
asV476-032-499-002
p2329
(lp2330
L2118L
asV856-166-882-176
p2331
(lp2332
L189L
asV252-912-342-956
p2333
(lp2334
L1474L
asV827-399-871-416
p2335
(lp2336
L992L
asV094-209-119-224
p2337
(lp2338
L2650L
asV645-927-707-878
p2339
(lp2340
L2645L
asV582-647-616-621
p2341
(lp2342
L533L
asV544-521-563-512
p2343
(lp2344
L1304L
asV230-839-252-912
p2345
(lp2346
L671L
asV835-277-865-287
p2347
(lp2348
L921L
asV171-399-269-411
p2349
(lp2350
L2180L
asV417-647-429-674
p2351
(lp2352
L1976L
asV470-689-476-696
p2353
(lp2354
L1498L
asV311-681-360-650
p2355
(lp2356
L98L
asV558-682-564-675
p2357
(lp2358
L341L
asV346-240-378-210
p2359
(lp2360
L2091L
asV126-145-143-166
p2361
(lp2362
L2064L
asV054-106-058-153
p2363
(lp2364
L2168L
asV326-189-362-145
p2365
(lp2366
L1485L
asV714-330-749-376
p2367
(lp2368
L2538L
asV440-174-470-250
p2369
(lp2370
L2775L
asV760-362-830-353
p2371
(lp2372
L1759L
asV516-689-524-696
p2373
(lp2374
L1439L
asV584-929-658-956
p2375
(lp2376
L2435L
asV197-791-266-743
p2377
(lp2378
L61L
asV862-734-946-806
p2379
(lp2380
L821L
asV281-456-358-402
p2381
(lp2382
L1199L
asV354-634-370-596
p2383
(lp2384
L2771L
asV373-331-423-292
p2385
(lp2386
L1883L
asV434-601-448-613
p2387
(lp2388
L2487L
asV379-835-433-802
p2389
(lp2390
L431L
asV515-723-524-760
p2391
(lp2392
L147L
asV836-121-865-100
p2393
(lp2394
L2437L
asV558-662-582-647
p2395
(lp2396
L1006L
asV459-695-461-707
p2397
(lp2398
L1138L
asV386-768-431-771
p2399
(lp2400
L873L
asV364-106-399-159
p2401
(lp2402
L1591L
asV741-003-764-059
p2403
(lp2404
L1695L
asV465-706-470-696
p2405
(lp2406
L1001L
asV456-931-500-897
p2407
(lp2408
L108L
asV553-037-585-068
p2409
(lp2410
L699L
asV349-307-401-276
p2411
(lp2412
L13L
asV562-688-562-697
p2413
(lp2414
L1025L
asV500-818-536-857
p2415
(lp2416
L744L
asV428-232-440-174
p2417
(lp2418
L1460L
asV571-232-598-276
p2419
(lp2420
L397L
asV442-669-449-677
p2421
(lp2422
L69L
asV250-376-285-330
p2423
(lp2424
L2258L
asV210-062-216-003
p2425
(lp2426
L550L
asV671-776-671-788
p2427
(lp2428
L313L
asV641-402-730-411
p2429
(lp2430
L943L
asV714-330-774-349
p2431
(lp2432
L2040L
asV047-891-053-805
p2433
(lp2434
L55L
asV625-700-678-718
p2435
(lp2436
L1854L
asV529-785-566-802
p2437
(lp2438
L688L
asV853-295-899-333
p2439
(lp2440
L1577L
asV836-121-838-175
p2441
(lp2442
L1799L
asV478-508-500-495
p2443
(lp2444
L2022L
asV598-276-650-307
p2445
(lp2446
L457L
asV536-857-567-826
p2447
(lp2448
L474L
asV679-793-706-777
p2449
(lp2450
L174L
asV653-240-673-189
p2451
(lp2452
L2198L
asV171-399-250-376
p2453
(lp2454
L1173L
asV164-277-181-271
p2455
(lp2456
L838L
asV603-578-629-596
p2457
(lp2458
L843L
asV367-678-414-667
p2459
(lp2460
L2539L
asV807-440-882-456
p2461
(lp2462
L2633L
asV308-105-332-065
p2463
(lp2464
L1183L
asV387-758-447-769
p2465
(lp2466
L2418L
asV871-416-933-431
p2467
(lp2468
L577L
asV672-140-736-100
p2469
(lp2470
L1124L
asV500-762-515-723
p2471
(lp2472
L12L
asV500-483-540-500
p2473
(lp2474
L452L
asV355-927-418-895
p2475
(lp2476
L1376L
asV551-613-582-607
p2477
(lp2478
L1450L
asV391-993-451-963
p2479
(lp2480
L1501L
asV909-114-920-100
p2481
(lp2482
L140L
asV518-219-518-221
p2483
(lp2484
L1100L
asV383-803-433-802
p2485
(lp2486
L1029L
asV515-113-531-102
p2487
(lp2488
L919L
asV518-634-556-618
p2489
(lp2490
L1787L
asV610-746-647-758
p2491
(lp2492
L2173L
asV328-788-341-802
p2493
(lp2494
L1132L
asV422-032-448-004
p2495
(lp2496
L1301L
asV951-234-976-175
p2497
(lp2498
L893L
asV500-897-543-931
p2499
(lp2500
L418L
asV539-896-574-860
p2501
(lp2502
L2677L
asV612-595-616-621
p2503
(lp2504
L1314L
asV465-160-485-113
p2505
(lp2506
L93L
asV407-225-416-163
p2507
(lp2508
L1906L
asV500-518-522-531
p2509
(lp2510
L1492L
asV552-243-576-292
p2511
(lp2512
L1746L
asV600-159-636-106
p2513
(lp2514
L2687L
asV597-963-678-992
p2515
(lp2516
L240L
asV223-597-248-654
p2517
(lp2518
L2604L
asV613-003-639-064
p2519
(lp2520
L2440L
asV307-763-330-740
p2521
(lp2522
L1217L
asV484-220-488-201
p2523
(lp2524
L1305L
asV537-727-549-754
p2525
(lp2526
L1807L
asV583-514-636-566
p2527
(lp2528
L2413L
asV615-721-676-732
p2529
(lp2530
L2393L
asV305-804-341-802
p2531
(lp2532
L1559L
asV500-036-526-069
p2533
(lp2534
L1655L
asV813-179-820-257
p2535
(lp2536
L148L
asV553-769-609-736
p2537
(lp2538
L2217L
asV451-963-500-933
p2539
(lp2540
L1068L
asV551-593-566-590
p2541
(lp2542
L150L
asV878-439-942-440
p2543
(lp2544
L2585L
asV500-668-516-658
p2545
(lp2546
L2708L
asV454-603-474-596
p2547
(lp2548
L2167L
asV508-695-515-701
p2549
(lp2550
L2599L
asV683-709-733-743
p2551
(lp2552
L857L
asV600-159-622-210
p2553
(lp2554
L1389L
asV613-768-647-758
p2555
(lp2556
L1170L
asV564-675-566-667
p2557
(lp2558
L1842L
asV543-532-570-551
p2559
(lp2560
L2739L
asV500-087-520-076
p2561
(lp2562
L1949L
asV566-802-621-835
p2563
(lp2564
L2682L
asV935-658-936-602
p2565
(lp2566
L94L
asV065-431-128-416
p2567
(lp2568
L75L
asV339-749-391-736
p2569
(lp2570
L2241L
asV520-623-551-613
p2571
(lp2572
L1086L
asV500-178-534-160
p2573
(lp2574
L2007L
asV374-700-426-726
p2575
(lp2576
L1062L
asV566-802-569-771
p2577
(lp2578
L2466L
asV481-786-500-762
p2579
(lp2580
L170L
asV852-134-865-100
p2581
(lp2582
L678L
asV475-203-483-189
p2583
(lp2584
L2391L
asV638-772-658-768
p2585
(lp2586
L2090L
asV585-667-632-678
p2587
(lp2588
L2270L
asV336-562-367-510
p2589
(lp2590
L1530L
asV821-418-878-439
p2591
(lp2592
L909L
asV566-473-580-501
p2593
(lp2594
L760L
asV157-599-278-554
p2595
(lp2596
L1190L
asV673-285-736-318
p2597
(lp2598
L604L
asV511-707-515-723
p2599
(lp2600
L2013L
asV092-245-126-265
p2601
(lp2602
L1738L
asV865-100-900-065
p2603
(lp2604
L2303L
asV557-669-566-667
p2605
(lp2606
L933L
asV420-776-420-790
p2607
(lp2608
L2190L
asV650-307-653-240
p2609
(lp2610
L328L
asV192-462-276-432
p2611
(lp2612
L1448L
asV062-215-092-264
p2613
(lp2614
L1422L
asV124-243-165-237
p2615
(lp2616
L1480L
asV026-247-092-264
p2617
(lp2618
L2062L
asV197-791-265-824
p2619
(lp2620
L728L
asV907-264-972-247
p2621
(lp2622
L1018L
asV545-603-565-601
p2623
(lp2624
L640L
asV334-107-360-064
p2625
(lp2626
L2551L
asV845-267-865-287
p2627
(lp2628
L334L
asV401-276-428-232
p2629
(lp2630
L329L
asV869-396-920-408
p2631
(lp2632
L887L
asV639-064-665-107
p2633
(lp2634
L2512L
asV439-649-483-658
p2635
(lp2636
L1924L
asV307-763-312-776
p2637
(lp2638
L828L
asV062-215-088-194
p2639
(lp2640
L1506L
asV455-521-477-531
p2641
(lp2642
L1935L
asV445-587-468-595
p2643
(lp2644
L1524L
asV522-531-544-521
p2645
(lp2646
L296L
asV450-032-476-004
p2647
(lp2648
L2567L
asV500-680-516-689
p2649
(lp2650
L241L
asV465-160-499-178
p2651
(lp2652
L849L
asV124-345-160-367
p2653
(lp2654
L603L
asV106-296-146-295
p2655
(lp2656
L1331L
asV930-052-944-106
p2657
(lp2658
L1841L
asV229-231-232-312
p2659
(lp2660
L1446L
asV322-833-374-858
p2661
(lp2662
L1917L
asV141-203-143-166
p2663
(lp2664
L2376L
asV347-594-379-571
p2665
(lp2666
L469L
asV417-647-442-662
p2667
(lp2668
L743L
asV367-678-417-703
p2669
(lp2670
L447L
asV515-701-524-696
p2671
(lp2672
L1748L
asV057-440-121-439
p2673
(lp2674
L673L
asV856-166-858-203
p2675
(lp2676
L1033L
asV266-743-316-709
p2677
(lp2678
L2441L
asV069-052-106-086
p2679
(lp2680
L42L
asV481-219-482-221
p2681
(lp2682
L1066L
asV659-802-671-788
p2683
(lp2684
L2288L
asV484-701-500-708
p2685
(lp2686
L142L
asV500-680-515-675
p2687
(lp2688
L1850L
asV232-312-305-258
p2689
(lp2690
L2660L
asV946-806-953-891
p2691
(lp2692
L544L
asV846-055-909-030
p2693
(lp2694
L552L
asV920-087-936-116
p2695
(lp2696
L530L
asV500-708-515-701
p2697
(lp2698
L476L
asV871-117-892-086
p2699
(lp2700
L2420L
asV522-508-540-500
p2701
(lp2702
L1986L
asV352-758-386-768
p2703
(lp2704
L2367L
asV069-052-095-045
p2705
(lp2706
L1281L
asV038-135-042-043
p2707
(lp2708
L710L
asV529-696-542-685
p2709
(lp2710
L596L
asV124-243-141-203
p2711
(lp2712
L1794L
asV670-740-693-763
p2713
(lp2714
L877L
asV043-197-062-215
p2715
(lp2716
L1678L
asV386-779-413-784
p2717
(lp2718
L1181L
asV173-244-178-176
p2719
(lp2720
L90L
asV500-805-527-823
p2721
(lp2722
L1241L
asV856-166-873-145
p2723
(lp2724
L2184L
asV169-353-189-313
p2725
(lp2726
L741L
asV032-020-038-011
p2727
(lp2728
L2078L
asV728-201-742-194
p2729
(lp2730
L1206L
asV500-620-518-634
p2731
(lp2732
L2170L
asV566-446-626-482
p2733
(lp2734
L400L
asV644-789-671-788
p2735
(lp2736
L1362L
asV437-503-463-493
p2737
(lp2738
L2339L
asV678-833-735-824
p2739
(lp2740
L317L
asV397-617-400-595
p2741
(lp2742
L1912L
asV501-219-513-244
p2743
(lp2744
L1174L
asV538-707-541-695
p2745
(lp2746
L345L
asV534-562-556-580
p2747
(lp2748
L806L
asV307-763-352-758
p2749
(lp2750
L1981L
asV437-688-448-697
p2751
(lp2752
L1765L
asV599-595-603-578
p2753
(lp2754
L681L
asV099-333-146-295
p2755
(lp2756
L2319L
asV415-068-447-037
p2757
(lp2758
L674L
asV535-672-550-677
p2759
(lp2760
L2408L
asV420-501-436-512
p2761
(lp2762
L2747L
asV537-555-560-568
p2763
(lp2764
L1168L
asV544-706-547-728
p2765
(lp2766
L2700L
asV164-861-210-950
p2767
(lp2768
L2522L
asV500-574-527-585
p2769
(lp2770
L820L
asV040-738-177-657
p2771
(lp2772
L1320L
asV146-295-181-271
p2773
(lp2774
L2584L
asV524-807-567-826
p2775
(lp2776
L2006L
asV672-140-731-180
p2777
(lp2778
L2765L
asV293-878-374-858
p2779
(lp2780
L1161L
asV553-769-613-758
p2781
(lp2782
L697L
asV391-736-447-769
p2783
(lp2784
L32L
asV677-224-744-213
p2785
(lp2786
L2050L
asV777-597-896-660
p2787
(lp2788
L437L
asV348-796-387-788
p2789
(lp2790
L1130L
asV458-685-470-696
p2791
(lp2792
L455L
asV364-106-388-065
p2793
(lp2794
L1987L
asV966-173-972-087
p2795
(lp2796
L1465L
asV653-386-738-393
p2797
(lp2798
L1242L
asV161-175-163-121
p2799
(lp2800
L66L
asV556-618-603-617
p2801
(lp2802
L146L
asV371-423-408-365
p2803
(lp2804
L1164L
asV889-598-896-660
p2805
(lp2806
L575L
asV653-240-694-258
p2807
(lp2808
L2106L
asV801-182-830-117
p2809
(lp2810
L2029L
asV343-778-356-789
p2811
(lp2812
L508L
asV397-578-400-595
p2813
(lp2814
L2406L
asV470-785-475-807
p2815
(lp2816
L462L
asV132-062-191-107
p2817
(lp2818
L589L
asV500-603-525-610
p2819
(lp2820
L225L
asV457-777-475-760
p2821
(lp2822
L2565L
asV491-695-500-688
p2823
(lp2824
L2092L
asV673-189-728-201
p2825
(lp2826
L700L
asV531-575-554-587
p2827
(lp2828
L1265L
asV298-064-327-003
p2829
(lp2830
L2543L
asV731-180-749-188
p2831
(lp2832
L2444L
asV169-353-238-362
p2833
(lp2834
L1926L
asV946-806-997-728
p2835
(lp2836
L2186L
asV744-198-744-213
p2837
(lp2838
L347L
asV367-893-426-860
p2839
(lp2840
L215L
asV598-276-622-210
p2841
(lp2842
L1884L
asV334-107-362-145
p2843
(lp2844
L1322L
asV440-421-500-443
p2845
(lp2846
L36L
asV326-765-329-776
p2847
(lp2848
L538L
asV733-743-802-791
p2849
(lp2850
L517L
asV466-758-476-723
p2851
(lp2852
L2257L
asV637-145-673-189
p2853
(lp2854
L1406L
asV501-219-511-201
p2855
(lp2856
L339L
asV485-113-499-087
p2857
(lp2858
L858L
asV524-604-547-609
p2859
(lp2860
L1933L
asV269-179-327-140
p2861
(lp2862
L2264L
asV866-076-900-065
p2863
(lp2864
L2533L
asV143-166-147-134
p2865
(lp2866
L808L
asV644-789-657-778
p2867
(lp2868
L897L
asV360-460-440-421
p2869
(lp2870
L1962L
asV633-510-799-554
p2871
(lp2872
L1719L
asV655-773-671-776
p2873
(lp2874
L402L
asV293-878-355-927
p2875
(lp2876
L1777L
asV491-195-498-184
p2877
(lp2878
L719L
asV394-349-444-306
p2879
(lp2880
L716L
asV960-011-967-020
p2881
(lp2882
L1396L
asV433-802-470-785
p2883
(lp2884
L662L
asV818-271-835-277
p2885
(lp2886
L192L
asV653-594-698-649
p2887
(lp2888
L2182L
asV808-107-867-063
p2889
(lp2890
L651L
asV909-030-933-040
p2891
(lp2892
L2096L
asV865-287-892-296
p2893
(lp2894
L1212L
asV701-064-736-100
p2895
(lp2896
L2278L
asV509-187-514-198
p2897
(lp2898
L2618L
asV548-963-584-929
p2899
(lp2900
L2136L
asV338-783-340-775
p2901
(lp2902
L2484L
asV128-416-171-399
p2903
(lp2904
L376L
asV201-554-367-510
p2905
(lp2906
L1930L
asV543-532-564-523
p2907
(lp2908
L1289L
asV225-349-285-330
p2909
(lp2910
L1758L
asV953-174-961-135
p2911
(lp2912
L1121L
asV465-706-484-723
p2913
(lp2914
L1851L
asV669-814-711-813
p2915
(lp2916
L1468L
asV346-240-349-307
p2917
(lp2918
L1274L
asV445-587-469-575
p2919
(lp2920
L1251L
asV379-571-424-534
p2921
(lp2922
L752L
asV753-200-770-231
p2923
(lp2924
L1902L
asV785-737-865-798
p2925
(lp2926
L867L
asV510-185-511-201
p2927
(lp2928
L869L
asV558-631-582-647
p2929
(lp2930
L1511L
asV547-728-583-703
p2931
(lp2932
L1321L
asV671-776-674-765
p2933
(lp2934
L1703L
asV892-086-930-052
p2935
(lp2936
L128L
asV501-192-507-217
p2937
(lp2938
L136L
asV167-975-342-956
p2939
(lp2940
L2054L
asV904-045-930-052
p2941
(lp2942
L2611L
asV418-607-448-613
p2943
(lp2944
L1955L
asV089-282-107-279
p2945
(lp2946
L143L
asV852-134-871-117
p2947
(lp2948
L346L
asV724-782-735-824
p2949
(lp2950
L2409L
asV549-690-551-697
p2951
(lp2952
L2662L
asV053-805-164-861
p2953
(lp2954
L661L
asV639-460-708-505
p2955
(lp2956
L1860L
asV640-650-689-681
p2957
(lp2958
L210L
asV434-601-454-603
p2959
(lp2960
L2575L
asV591-003-611-065
p2961
(lp2962
L2223L
asV501-184-508-195
p2963
(lp2964
L1133L
asV417-703-453-728
p2965
(lp2966
L1745L
asV556-580-566-590
p2967
(lp2968
L111L
asV788-176-821-112
p2969
(lp2970
L1705L
asV063-116-079-087
p2971
(lp2972
L2410L
asV533-758-553-769
p2973
(lp2974
L278L
asV383-621-387-595
p2975
(lp2976
L2781L
asV576-292-626-331
p2977
(lp2978
L2159L
asV560-594-576-595
p2979
(lp2980
L2554L
asV483-658-500-668
p2981
(lp2982
L1769L
asV500-613-520-623
p2983
(lp2984
L939L
asV373-482-433-446
p2985
(lp2986
L2174L
asV767-312-770-231
p2987
(lp2988
L2105L
asV769-839-865-798
p2989
(lp2990
L248L
asV672-003-701-064
p2991
(lp2992
L1711L
asV433-667-435-675
p2993
(lp2994
L303L
asV580-790-615-796
p2995
(lp2996
L2059L
asV591-777-613-768
p2997
(lp2998
L1303L
asV483-189-489-182
p2999
(lp3000
L985L
asV220-098-235-059
p3001
(lp3002
L1948L
asV066-040-090-031
p3003
(lp3004
L1262L
asV752-654-862-734
p3005
(lp3006
L1596L
asV920-408-975-420
p3007
(lp3008
L58L
asV821-112-866-076
p3009
(lp3010
L2235L
asV470-196-482-209
p3011
(lp3012
L1424L
asV417-647-441-631
p3013
(lp3014
L516L
asV567-826-626-858
p3015
(lp3016
L293L
asV415-929-451-963
p3017
(lp3018
L479L
asV023-420-079-408
p3019
(lp3020
L1233L
asV486-244-499-219
p3021
(lp3022
L1939L
asV650-307-714-330
p3023
(lp3024
L753L
asV397-617-444-618
p3025
(lp3026
L2026L
asV332-065-357-003
p3027
(lp3028
L2343L
asV476-696-484-701
p3029
(lp3030
L1004L
asV472-585-500-574
p3031
(lp3032
L2699L
asV241-496-368-438
p3033
(lp3034
L1134L
asV609-736-660-749
p3035
(lp3036
L1127L
asV227-697-302-649
p3037
(lp3038
L279L
asV399-107-440-174
p3039
(lp3040
L1409L
asV617-803-652-796
p3041
(lp3042
L1196L
asV157-552-185-488
p3043
(lp3044
L249L
asV524-617-547-609
p3045
(lp3046
L2381L
asV542-685-549-690
p3047
(lp3048
L1180L
asV557-669-564-675
p3049
(lp3050
L95L
asV423-595-425-588
p3051
(lp3052
L259L
asV579-776-580-790
p3053
(lp3054
L2150L
asV436-512-455-521
p3055
(lp3056
L2293L
asV436-523-456-532
p3057
(lp3058
L783L
asV449-677-464-672
p3059
(lp3060
L1457L
asV667-065-691-105
p3061
(lp3062
L900L
asV500-554-535-545
p3063
(lp3064
L1903L
asV250-376-329-368
p3065
(lp3066
L962L
asV322-833-383-815
p3067
(lp3068
L2172L
asV788-176-820-257
p3069
(lp3070
L810L
asV653-594-663-562
p3071
(lp3072
L953L
asV631-438-758-496
p3073
(lp3074
L2639L
asV500-649-516-658
p3075
(lp3076
L1727L
asV229-231-246-200
p3077
(lp3078
L1436L
asV880-224-907-245
p3079
(lp3080
L1508L
asV163-121-186-179
p3081
(lp3082
L1348L
asV426-380-444-306
p3083
(lp3084
L2473L
asV130-396-165-382
p3085
(lp3086
L1733L
asV626-858-707-878
p3087
(lp3088
L333L
asV386-768-409-777
p3089
(lp3090
L590L
asV551-004-577-032
p3091
(lp3092
L526L
asV461-896-500-853
p3093
(lp3094
L2061L
asV586-784-613-779
p3095
(lp3096
L2388L
asV126-145-128-117
p3097
(lp3098
L2476L
asV265-824-275-782
p3099
(lp3100
L1691L
asV625-700-689-681
p3101
(lp3102
L2081L
asV132-076-178-113
p3103
(lp3104
L1401L
asV799-554-889-598
p3105
(lp3106
L2572L
asV500-002-523-032
p3107
(lp3108
L570L
asV852-134-856-166
p3109
(lp3110
L2535L
asV429-551-456-532
p3111
(lp3112
L1768L
asV534-160-555-130
p3113
(lp3114
L1307L
asV500-574-534-562
p3115
(lp3116
L1766L
asV179-257-186-179
p3117
(lp3118
L335L
asV698-649-773-697
p3119
(lp3120
L2670L
asV448-697-461-707
p3121
(lp3122
L1774L
asV693-763-724-782
p3123
(lp3124
L1031L
asV500-468-566-446
p3125
(lp3126
L2644L
asV538-707-551-697
p3127
(lp3128
L1977L
asV429-681-437-688
p3129
(lp3130
L88L
asV098-065-132-076
p3131
(lp3132
L979L
asV331-814-383-803
p3133
(lp3134
L106L
asV525-037-554-069
p3135
(lp3136
L1261L
asV440-568-463-555
p3137
(lp3138
L553L
asV723-136-778-098
p3139
(lp3140
L2680L
asV549-690-558-682
p3141
(lp3142
L1364L
asV839-367-875-345
p3143
(lp3144
L253L
asV311-681-374-700
p3145
(lp3146
L2325L
asV843-552-936-602
p3147
(lp3148
L622L
asV475-807-500-786
p3149
(lp3150
L1762L
asV524-760-543-777
p3151
(lp3152
L316L
asV518-668-558-662
p3153
(lp3154
L2614L
asV530-318-552-243
p3155
(lp3156
L1032L
asV837-861-946-806
p3157
(lp3158
L1945L
asV605-349-670-368
p3159
(lp3160
L1249L
asV892-296-972-247
p3161
(lp3162
L1223L
asV475-760-481-786
p3163
(lp3164
L1632L
asV501-184-501-219
p3165
(lp3166
L2510L
asV434-590-449-593
p3167
(lp3168
L2428L
asV583-703-632-678
p3169
(lp3170
L179L
asV128-117-147-134
p3171
(lp3172
L885L
asV475-203-479-223
p3173
(lp3174
L2552L
asV575-588-576-595
p3175
(lp3176
L2449L
asV477-531-500-518
p3177
(lp3178
L632L
asV818-271-853-295
p3179
(lp3180
L291L
asV559-174-571-232
p3181
(lp3182
L1714L
asV436-512-459-500
p3183
(lp3184
L2334L
asV894-016-943-026
p3185
(lp3186
L1295L
asV450-754-463-727
p3187
(lp3188
L1363L
asV444-130-465-160
p3189
(lp3190
L2590L
asV612-788-641-779
p3191
(lp3192
L1590L
asV543-931-581-895
p3193
(lp3194
L1222L
asV556-306-573-380
p3195
(lp3196
L1442L
asV104-660-111-598
p3197
(lp3198
L852L
asV498-184-499-219
p3199
(lp3200
L1359L
asV500-668-515-675
p3201
(lp3202
L261L
asV708-755-748-787
p3203
(lp3204
L1788L
asV517-209-529-196
p3205
(lp3206
L1429L
asV329-368-394-349
p3207
(lp3208
L612L
asV813-179-836-121
p3209
(lp3210
L2490L
asV342-956-415-929
p3211
(lp3212
L1034L
asV626-482-633-510
p3213
(lp3214
L2515L
asV599-595-603-617
p3215
(lp3216
L39L
asV141-203-161-175
p3217
(lp3218
L1535L
asV783-003-789-062
p3219
(lp3220
L1319L
asV500-087-515-113
p3221
(lp3222
L764L
asV920-408-921-387
p3223
(lp3224
L1323L
asV568-689-583-703
p3225
(lp3226
L799L
asV500-495-522-508
p3227
(lp3228
L100L
asV558-682-562-688
p3229
(lp3230
L1232L
asV364-566-416-514
p3231
(lp3232
L175L
asV464-545-500-532
p3233
(lp3234
L2045L
asV027-087-032-173
p3235
(lp3236
L875L
asV867-063-904-045
p3237
(lp3238
L701L
asV911-194-936-215
p3239
(lp3240
L2151L
asV031-657-040-738
p3241
(lp3242
L2232L
asV956-738-969-657
p3243
(lp3244
L2527L
asV117-456-192-440
p3245
(lp3246
L1630L
asV521-702-529-696
p3247
(lp3248
L1201L
asV482-649-500-632
p3249
(lp3250
L1479L
asV510-182-517-189
p3251
(lp3252
L731L
asV352-758-389-746
p3253
(lp3254
L200L
asV470-196-483-184
p3255
(lp3256
L1752L
asV647-758-693-763
p3257
(lp3258
L2248L
asV455-706-476-723
p3259
(lp3260
L1556L
asV500-559-537-555
p3261
(lp3262
L1951L
asV147-134-161-175
p3263
(lp3264
L1808L
asV535-672-558-662
p3265
(lp3266
L1111L
asV359-765-385-774
p3267
(lp3268
L1404L
asV452-609-475-604
p3269
(lp3270
L2350L
asV515-113-534-160
p3271
(lp3272
L1580L
asV559-174-600-107
p3273
(lp3274
L1645L
asV328-788-329-776
p3275
(lp3276
L2588L
asV453-728-455-706
p3277
(lp3278
L319L
asV529-250-559-174
p3279
(lp3280
L2524L
asV134-100-163-121
p3281
(lp3282
L871L
asV941-153-944-106
p3283
(lp3284
L166L
asV089-282-106-296
p3285
(lp3286
L2340L
asV111-598-201-554
p3287
(lp3288
L374L
asV431-771-433-802
p3289
(lp3290
L389L
asV520-076-531-102
p3291
(lp3292
L1058L
asV500-483-566-473
p3293
(lp3294
L4L
asV235-149-276-137
p3295
(lp3296
L297L
asV265-824-322-833
p3297
(lp3298
L139L
asV500-933-548-963
p3299
(lp3300
L371L
asV548-963-608-993
p3301
(lp3302
L1971L
asV388-065-408-003
p3303
(lp3304
L2730L
asV764-059-778-098
p3305
(lp3306
L2039L
asV107-279-133-287
p3307
(lp3308
L773L
asV447-243-470-318
p3309
(lp3310
L357L
asV515-701-523-706
p3311
(lp3312
L1899L
asV263-063-292-003
p3313
(lp3314
L2609L
asV173-003-210-062
p3315
(lp3316
L382L
asV106-296-133-287
p3317
(lp3318
L1012L
asV483-689-500-680
p3319
(lp3320
L2495L
asV475-760-484-723
p3321
(lp3322
L1358L
asV442-662-481-668
p3323
(lp3324
L416L
asV637-145-665-107
p3325
(lp3326
L807L
asV531-102-555-130
p3327
(lp3328
L2553L
asV640-765-674-765
p3329
(lp3330
L2659L
asV943-026-957-043
p3331
(lp3332
L2L
asV524-807-529-785
p3333
(lp3334
L2542L
asV448-697-450-690
p3335
(lp3336
L256L
asV518-786-524-760
p3337
(lp3338
L49L
asV458-685-473-679
p3339
(lp3340
L581L
asV434-590-443-580
p3341
(lp3342
L1407L
asV735-824-802-791
p3343
(lp3344
L421L
asV660-775-662-783
p3345
(lp3346
L2563L
asV161-175-165-237
p3347
(lp3348
L1922L
asV586-594-590-583
p3349
(lp3350
L2720L
asV433-446-500-468
p3351
(lp3352
L2541L
asV078-100-090-114
p3353
(lp3354
L1901L
asV747-912-769-839
p3355
(lp3356
L1109L
asV409-583-414-594
p3357
(lp3358
L676L
asV378-210-399-159
p3359
(lp3360
L2493L
asV541-384-631-438
p3361
(lp3362
L1347L
asV517-184-529-196
p3363
(lp3364
L312L
asV063-602-065-658
p3365
(lp3366
L1473L
asV815-488-843-552
p3367
(lp3368
L196L
asV437-688-438-697
p3369
(lp3370
L1565L
asV104-660-223-597
p3371
(lp3372
L1071L
asV468-102-480-076
p3373
(lp3374
L2086L
asV433-667-442-669
p3375
(lp3376
L2134L
asV448-613-479-623
p3377
(lp3378
L1115L
asV527-679-542-685
p3379
(lp3380
L2326L
asV478-508-500-518
p3381
(lp3382
L720L
asV834-237-875-243
p3383
(lp3384
L1394L
asV517-189-524-203
p3385
(lp3386
L1620L
asV043-197-046-173
p3387
(lp3388
L690L
asV414-594-434-601
p3389
(lp3390
L2335L
asV263-318-326-285
p3391
(lp3392
L2751L
asV581-895-645-927
p3393
(lp3394
L2263L
asV475-610-500-603
p3395
(lp3396
L1974L
asV485-675-500-680
p3397
(lp3398
L2777L
asV708-505-843-552
p3399
(lp3400
L1118L
asV524-723-533-758
p3401
(lp3402
L496L
asV526-596-545-603
p3403
(lp3404
L340L
asV564-675-571-681
p3405
(lp3406
L1057L
asV892-279-910-282
p3407
(lp3408
L630L
asV592-365-653-386
p3409
(lp3410
L356L
asV500-688-508-695
p3411
(lp3412
L1228L
asV423-595-440-594
p3413
(lp3414
L2460L
asV542-685-550-677
p3415
(lp3416
L2663L
asV432-826-475-807
p3417
(lp3418
L696L
asV255-213-322-224
p3419
(lp3420
L1504L
asV550-677-557-669
p3421
(lp3422
L1191L
asV483-658-500-649
p3423
(lp3424
L85L
asV622-210-653-240
p3425
(lp3426
L2496L
asV121-439-178-418
p3427
(lp3428
L385L
asV532-595-554-587
p3429
(lp3430
L2208L
asV565-601-586-594
p3431
(lp3432
L1973L
asV157-552-292-505
p3433
(lp3434
L1043L
asV484-701-491-695
p3435
(lp3436
L230L
asV179-257-211-176
p3437
(lp3438
L2294L
asV090-031-153-055
p3439
(lp3440
L1862L
asV810-313-830-353
p3441
(lp3442
L2569L
asV676-732-708-755
p3443
(lp3444
L358L
asV336-562-347-594
p3445
(lp3446
L1734L
asV433-473-500-483
p3447
(lp3448
L2671L
asV261-393-346-386
p3449
(lp3450
L687L
asV109-376-130-396
p3451
(lp3452
L2341L
asV484-723-500-762
p3453
(lp3454
L102L
asV047-891-210-950
p3455
(lp3456
L2284L
asV500-632-517-649
p3457
(lp3458
L2114L
asV354-634-414-667
p3459
(lp3460
L1L
asV482-189-488-201
p3461
(lp3462
L1776L
asV209-335-263-318
p3463
(lp3464
L669L
asV694-258-767-312
p3465
(lp3466
L173L
asV491-695-500-701
p3467
(lp3468
L1248L
asV485-198-490-187
p3469
(lp3470
L2183L
asV749-376-827-399
p3471
(lp3472
L1832L
asV079-408-130-396
p3473
(lp3474
L1666L
asV346-386-408-365
p3475
(lp3476
L165L
asV447-769-466-758
p3477
(lp3478
L141L
asV871-117-873-145
p3479
(lp3480
L202L
asV488-201-499-219
p3481
(lp3482
L1385L
asV790-950-837-861
p3483
(lp3484
L449L
asV481-220-485-198
p3485
(lp3486
L1416L
asV564-523-583-514
p3487
(lp3488
L2300L
asV485-675-500-668
p3489
(lp3490
L1891L
asV483-689-491-695
p3491
(lp3492
L1024L
asV790-950-953-891
p3493
(lp3494
L2030L
asV475-610-500-613
p3495
(lp3496
L436L
asV250-188-269-179
p3497
(lp3498
L778L
asV688-776-693-763
p3499
(lp3500
L2024L
asV789-062-825-003
p3501
(lp3502
L1162L
asV271-201-326-189
p3503
(lp3504
L2032L
asV322-718-374-700
p3505
(lp3506
L1388L
asV592-365-628-423
p3507
(lp3508
L1865L
asV164-277-173-244
p3509
(lp3510
L1067L
asV620-571-653-594
p3511
(lp3512
L1081L
asV892-296-910-282
p3513
(lp3514
L471L
asV473-069-499-036
p3515
(lp3516
L467L
asV835-277-853-295
p3517
(lp3518
L331L
asV583-163-592-225
p3519
(lp3520
L387L
asV444-130-468-102
p3521
(lp3522
L430L
asV524-004-550-032
p3523
(lp3524
L999L
asV324-732-384-721
p3525
(lp3526
L342L
asV429-681-435-675
p3527
(lp3528
L2556L
asV450-690-458-685
p3529
(lp3530
L2346L
asV536-493-562-503
p3531
(lp3532
L417L
asV451-963-500-995
p3533
(lp3534
L2374L
asV853-295-892-296
p3535
(lp3536
L442L
asV871-117-909-114
p3537
(lp3538
L97L
asV455-521-478-508
p3539
(lp3540
L1790L
asV418-895-456-931
p3541
(lp3542
L1515L
asV292-505-360-460
p3543
(lp3544
L2312L
asV658-956-833-975
p3545
(lp3546
L2416L
asV689-681-785-737
p3547
(lp3548
L2216L
asV707-878-735-824
p3549
(lp3550
L576L
asV519-680-529-689
p3551
(lp3552
L1652L
asV275-782-307-763
p3553
(lp3554
L2386L
asV038-135-046-173
p3555
(lp3556
L2153L
asV446-069-474-037
p3557
(lp3558
L2085L
asV092-245-119-224
p3559
(lp3560
L1013L
asV573-726-609-736
p3561
(lp3562
L961L
asV957-043-961-135
p3563
(lp3564
L2129L
asV522-508-544-521
p3565
(lp3566
L167L
asV869-396-890-376
p3567
(lp3568
L1896L
asV481-634-500-620
p3569
(lp3570
L1729L
asV265-824-293-878
p3571
(lp3572
L1673L
asV488-201-490-185
p3573
(lp3574
L1263L
asV821-176-826-244
p3575
(lp3576
L1023L
asV579-776-592-781
p3577
(lp3578
L1254L
asV500-518-522-508
p3579
(lp3580
L1467L
asV348-796-383-803
p3581
(lp3582
L1459L
asV642-003-667-065
p3583
(lp3584
L1796L
asV524-696-529-689
p3585
(lp3586
L754L
asV115-206-117-176
p3587
(lp3588
L1325L
asV569-771-613-768
p3589
(lp3590
L54L
asV477-706-484-701
p3591
(lp3592
L1550L
asV470-689-480-680
p3593
(lp3594
L30L
asV562-688-571-681
p3595
(lp3596
L1561L
asV215-737-311-681
p3597
(lp3598
L1963L
asV165-382-238-362
p3599
(lp3600
L2002L
asV516-689-519-680
p3601
(lp3602
L1264L
asV252-787-292-755
p3603
(lp3604
L2787L
asV442-682-449-677
p3605
(lp3606
L2461L
asV078-100-106-086
p3607
(lp3608
L194L
asV384-796-420-790
p3609
(lp3610
L967L
asV629-596-646-634
p3611
(lp3612
L275L
asV895-188-904-209
p3613
(lp3614
L2744L
asV511-201-515-220
p3615
(lp3616
L1858L
asV170-117-197-182
p3617
(lp3618
L518L
asV255-198-255-213
p3619
(lp3620
L595L
asV326-189-346-240
p3621
(lp3622
L1007L
asV524-723-544-706
p3623
(lp3624
L1342L
asV574-860-633-893
p3625
(lp3626
L2365L
asV500-853-539-896
p3627
(lp3628
L362L
asV090-114-128-117
p3629
(lp3630
L2275L
asV933-040-949-061
p3631
(lp3632
L2415L
asV435-675-442-669
p3633
(lp3634
L1892L
asV585-667-646-634
p3635
(lp3636
L2758L
asV520-223-524-203
p3637
(lp3638
L137L
asV178-113-211-176
p3639
(lp3640
L480L
asV529-696-534-706
p3641
(lp3642
L1315L
asV490-187-499-181
p3643
(lp3644
L1200L
asV426-860-461-896
p3645
(lp3646
L2306L
asV472-585-499-593
p3647
(lp3648
L1941L
asV133-287-164-277
p3649
(lp3650
L1418L
asV050-061-066-040
p3651
(lp3652
L2673L
asV435-675-442-682
p3653
(lp3654
L2640L
asV442-682-450-690
p3655
(lp3656
L2003L
asV042-043-056-026
p3657
(lp3658
L1158L
asV135-798-215-737
p3659
(lp3660
L1107L
asV730-411-827-399
p3661
(lp3662
L2646L
asV288-813-294-777
p3663
(lp3664
L1657L
asV135-798-230-839
p3665
(lp3666
L1845L
asV420-501-433-473
p3667
(lp3668
L1622L
asV834-382-869-396
p3669
(lp3670
L840L
asV479-623-500-613
p3671
(lp3672
L1005L
asV263-100-327-140
p3673
(lp3674
L2603L
asV022-175-048-234
p3675
(lp3676
L8L
asV397-578-429-551
p3677
(lp3678
L2360L
asV026-247-106-296
p3679
(lp3680
L1742L
asV650-307-670-368
p3681
(lp3682
L880L
asV936-215-956-197
p3683
(lp3684
L505L
asV326-765-359-765
p3685
(lp3686
L794L
asV468-102-485-113
p3687
(lp3688
L2125L
asV612-788-652-796
p3689
(lp3690
L1333L
asV178-418-276-432
p3691
(lp3692
L1513L
asV133-287-153-267
p3693
(lp3694
L388L
asV359-779-387-788
p3695
(lp3696
L519L
asV444-618-481-634
p3697
(lp3698
L41L
asV535-545-565-560
p3699
(lp3700
L2776L
asV501-181-509-187
p3701
(lp3702
L1476L
asV559-421-639-460
p3703
(lp3704
L512L
asV464-545-500-554
p3705
(lp3706
L540L
asV500-762-518-786
p3707
(lp3708
L35L
asV706-777-711-813
p3709
(lp3710
L2712L
asV487-217-491-195
p3711
(lp3712
L176L
asV614-774-640-765
p3713
(lp3714
L184L
asV117-176-143-166
p3715
(lp3716
L547L
asV721-554-843-599
p3717
(lp3718
L780L
asV566-802-617-803
p3719
(lp3720
L689L
asV466-562-500-574
p3721
(lp3722
L723L
asV500-786-524-807
p3723
(lp3724
L268L
asV873-265-907-245
p3725
(lp3726
L2131L
asV438-697-455-706
p3727
(lp3728
L1284L
asV383-621-417-647
p3729
(lp3730
L2053L
asV670-368-749-376
p3731
(lp3732
L2001L
asV263-100-298-064
p3733
(lp3734
L1149L
asV399-107-408-067
p3735
(lp3736
L171L
asV500-443-559-421
p3737
(lp3738
L571L
asV568-689-585-667
p3739
(lp3740
L2127L
asV305-258-346-240
p3741
(lp3742
L1087L
asV322-992-402-963
p3743
(lp3744
L2243L
asV374-858-432-826
p3745
(lp3746
L64L
asV463-555-500-559
p3747
(lp3748
L1721L
asV658-956-747-912
p3749
(lp3750
L1308L
asV838-175-852-134
p3751
(lp3752
L1663L
asV414-667-431-689
p3753
(lp3754
L2089L
asV285-330-349-307
p3755
(lp3756
L2594L
asV409-583-443-580
p3757
(lp3758
L1643L
asV540-500-563-512
p3759
(lp3760
L2027L
asV551-697-562-688
p3761
(lp3762
L1881L
asV452-609-475-617
p3763
(lp3764
L737L
asV302-649-347-594
p3765
(lp3766
L2426L
asV223-597-336-562
p3767
(lp3768
L494L
asV056-026-105-016
p3769
(lp3770
L439L
asV370-596-397-578
p3771
(lp3772
L1300L
asV723-432-807-462
p3773
(lp3774
L2589L
asV659-802-695-804
p3775
(lp3776
L2557L
asV459-500-478-508
p3777
(lp3778
L2403L
asV570-551-603-578
p3779
(lp3780
L1048L
asV573-726-625-700
p3781
(lp3782
L216L
asV882-176-884-206
p3783
(lp3784
L209L
asV053-805-137-734
p3785
(lp3786
L2179L
asV435-560-464-545
p3787
(lp3788
L1639L
asV641-402-718-456
p3789
(lp3790
L601L
asV508-695-516-689
p3791
(lp3792
L1375L
asV378-210-401-276
p3793
(lp3794
L2292L
asV063-602-157-552
p3795
(lp3796
L348L
asV473-823-500-805
p3797
(lp3798
L541L
asV439-649-481-634
p3799
(lp3800
L1128L
asV442-662-464-672
p3801
(lp3802
L1471L
asV617-803-669-814
p3803
(lp3804
L1562L
asV095-045-132-062
p3805
(lp3806
L366L
asV054-106-069-052
p3807
(lp3808
L1602L
asV391-736-426-726
p3809
(lp3810
L1831L
asV288-813-331-814
p3811
(lp3812
L162L
asV953-174-956-197
p3813
(lp3814
L2578L
asV823-657-956-738
p3815
(lp3816
L1179L
asV736-318-790-335
p3817
(lp3818
L1925L
asV397-578-440-568
p3819
(lp3820
L506L
asV463-857-500-818
p3821
(lp3822
L1150L
asV752-654-777-597
p3823
(lp3824
L254L
asV134-100-147-134
p3825
(lp3826
L983L
asV663-562-777-597
p3827
(lp3828
L1923L
asV544-706-562-697
p3829
(lp3830
L2464L
asV003-728-053-805
p3831
(lp3832
L2616L
asV707-003-736-063
p3833
(lp3834
L81L
asV838-175-858-203
p3835
(lp3836
L433L
asV633-510-663-562
p3837
(lp3838
L1332L
asV865-287-892-279
p3839
(lp3840
L1270L
asV723-432-821-418
p3841
(lp3842
L891L
asV423-292-447-243
p3843
(lp3844
L625L
asV563-512-580-501
p3845
(lp3846
L1147L
asV500-995-548-963
p3847
(lp3848
L1644L
asV500-593-527-585
p3849
(lp3850
L282L
asV514-198-518-220
p3851
(lp3852
L1103L
asV500-613-525-610
p3853
(lp3854
L2783L
asV459-500-500-483
p3855
(lp3856
L2502L
asV368-438-458-384
p3857
(lp3858
L129L
asV834-237-838-175
p3859
(lp3860
L1999L
asV570-674-582-647
p3861
(lp3862
L2625L
asV880-224-904-209
p3863
(lp3864
L2579L
asV476-696-483-689
p3865
(lp3866
L520L
asV480-680-483-689
p3867
(lp3868
L2014L
asV508-195-512-217
p3869
(lp3870
L734L
asV518-634-560-649
p3871
(lp3872
L846L
asV582-607-586-594
p3873
(lp3874
L2204L
asV480-076-499-087
p3875
(lp3876
L554L
asV106-086-128-117
p3877
(lp3878
L1188L
asV077-387-079-408
p3879
(lp3880
L318L
asV367-510-373-482
p3881
(lp3882
L2249L
asV417-703-431-689
p3883
(lp3884
L1426L
asV137-734-248-654
p3885
(lp3886
L1477L
asV492-217-499-192
p3887
(lp3888
L2518L
asV760-362-834-382
p3889
(lp3890
L65L
asV626-858-678-833
p3891
(lp3892
L2580L
asV500-701-508-695
p3893
(lp3894
L2101L
asV416-514-436-523
p3895
(lp3896
L2196L
asV611-065-636-106
p3897
(lp3898
L926L
asV220-098-276-137
p3899
(lp3900
L1497L
asV292-755-324-732
p3901
(lp3902
L1144L
asV616-815-678-833
p3903
(lp3904
L1430L
asV146-295-164-277
p3905
(lp3906
L2688L
asV907-264-936-215
p3907
(lp3908
L1266L
asV115-206-141-203
p3909
(lp3910
L1804L
asV556-580-590-583
p3911
(lp3912
L647L
asV556-306-605-349
p3913
(lp3914
L1280L
asV098-065-134-100
p3915
(lp3916
L96L
asV407-781-420-776
p3917
(lp3918
L2411L
asV329-776-345-773
p3919
(lp3920
L1105L
asV235-059-258-003
p3921
(lp3922
L2132L
asV858-203-875-243
p3923
(lp3924
L514L
asV437-688-442-682
p3925
(lp3926
L1372L
asV360-064-386-003
p3927
(lp3928
L2626L
asV560-568-603-578
p3929
(lp3930
L1337L
asV892-086-920-100
p3931
(lp3932
L1046L
asV341-768-362-772
p3933
(lp3934
L390L
asV470-696-478-702
p3935
(lp3936
L1462L
asV500-532-535-545
p3937
(lp3938
L350L
asV550-677-558-682
p3939
(lp3940
L584L
asV575-534-620-571
p3941
(lp3942
L510L
asV328-788-356-789
p3943
(lp3944
L118L
asV440-421-500-379
p3945
(lp3946
L2509L
asV094-209-104-188
p3947
(lp3948
L948L
asV443-580-466-562
p3949
(lp3950
L1826L
asV591-067-600-107
p3951
(lp3952
L227L
asV449-677-458-685
p3953
(lp3954
L1381L
asV515-723-534-706
p3955
(lp3956
L269L
asV723-136-764-149
p3957
(lp3958
L1312L
asV500-379-559-421
p3959
(lp3960
L2344L
asV516-658-560-649
p3961
(lp3962
L1623L
asV432-826-463-857
p3963
(lp3964
L1898L
asV484-723-489-707
p3965
(lp3966
L1722L
asV826-244-835-277
p3967
(lp3968
L1338L
asV414-594-418-607
p3969
(lp3970
L1773L
asV551-613-565-601
p3971
(lp3972
L2704L
asV257-194-271-201
p3973
(lp3974
L1687L
asV858-203-884-206
p3975
(lp3976
L199L
asV269-411-358-402
p3977
(lp3978
L1723L
assVlowerBodyMesh
p3979
(dp3980
V476-916-526-855
p3981
(lp3982
L27L
asV147-955-158-993
p3983
(lp3984
L1443L
asV479-195-499-247
p3985
(lp3986
L22L
asV493-356-500-396
p3987
(lp3988
L925L
asV313-852-348-896
p3989
(lp3990
L164L
asV178-902-187-928
p3991
(lp3992
L534L
asV143-370-152-394
p3993
(lp3994
L1012L
asV096-405-102-431
p3995
(lp3996
L2213L
asV109-408-119-382
p3997
(lp3998
L881L
asV278-042-304-017
p3999
(lp4000
L171L
asV521-033-531-049
p4001
(lp4002
L1330L
asV452-658-496-586
p4003
(lp4004
L2482L
asV664-060-679-097
p4005
(lp4006
L1811L
asV790-320-815-290
p4007
(lp4008
L1096L
asV865-264-880-291
p4009
(lp4010
L449L
aL696L
asV127-914-162-860
p4011
(lp4012
L662L
asV474-965-496-988
p4013
(lp4014
L714L
asV369-776-418-822
p4015
(lp4016
L1796L
asV481-097-494-145
p4017
(lp4018
L352L
asV543-201-571-258
p4019
(lp4020
L1020L
asV216-050-240-016
p4021
(lp4022
L1670L
asV707-273-723-331
p4023
(lp4024
L895L
asV253-431-259-405
p4025
(lp4026
L2078L
asV816-322-836-292
p4027
(lp4028
L2124L
asV876-545-887-558
p4029
(lp4030
L0L
aL286L
asV236-992-253-947
p4031
(lp4032
L1236L
asV045-442-060-422
p4033
(lp4034
L232L
asV420-944-445-849
p4035
(lp4036
L1298L
asV060-422-078-405
p4037
(lp4038
L923L
asV886-444-902-469
p4039
(lp4040
L1279L
aL2271L
asV684-916-710-993
p4041
(lp4042
L246L
asV263-805-266-842
p4043
(lp4044
L773L
asV313-852-349-777
p4045
(lp4046
L369L
asV194-860-228-913
p4047
(lp4048
L486L
asV112-834-121-807
p4049
(lp4050
L873L
asV713-802-749-768
p4051
(lp4052
L1056L
asV041-852-058-895
p4053
(lp4054
L1442L
asV407-509-427-605
p4055
(lp4056
L2476L
asV627-507-664-586
p4057
(lp4058
L563L
asV536-146-562-199
p4059
(lp4060
L2008L
asV849-531-852-575
p4061
(lp4062
L988L
aL2357L
asV660-396-667-356
p4063
(lp4064
L1018L
asV905-936-920-974
p4065
(lp4066
L1353L
aL2106L
asV194-860-228-860
p4067
(lp4068
L190L
asV523-362-525-322
p4069
(lp4070
L1026L
asV611-076-628-049
p4071
(lp4072
L413L
asV743-822-792-776
p4073
(lp4074
L2151L
asV734-605-754-509
p4075
(lp4076
L1119L
asV084-619-134-709
p4077
(lp4078
L442L
asV097-202-124-144
p4079
(lp4080
L2296L
asV228-429-234-455
p4081
(lp4082
L1146L
asV216-426-222-453
p4083
(lp4084
L695L
asV968-476-996-425
p4085
(lp4086
L272L
aL612L
asV078-405-084-430
p4087
(lp4088
L845L
asV672-396-682-420
p4089
(lp4090
L1334L
asV611-265-640-199
p4091
(lp4092
L1972L
asV612-362-621-388
p4093
(lp4094
L1227L
asV182-591-202-514
p4095
(lp4096
L1387L
asV481-097-496-060
p4097
(lp4098
L2158L
asV244-834-256-873
p4099
(lp4100
L255L
asV679-143-693-088
p4101
(lp4102
L1061L
asV478-420-488-396
p4103
(lp4104
L1315L
asV665-195-679-143
p4105
(lp4106
L326L
asV678-369-688-395
p4107
(lp4108
L851L
asV461-394-471-366
p4109
(lp4110
L309L
asV200-450-209-476
p4111
(lp4112
L939L
asV545-761-565-755
p4113
(lp4114
L36L
asV226-885-256-873
p4115
(lp4116
L1156L
asV635-322-656-354
p4117
(lp4118
L41L
asV580-783-602-768
p4119
(lp4120
L673L
asV526-396-539-417
p4121
(lp4122
L196L
asV481-143-494-195
p4123
(lp4124
L1565L
asV297-894-313-852
p4125
(lp4126
L342L
asV128-860-162-860
p4127
(lp4128
L1116L
asV236-317-256-349
p4129
(lp4130
L734L
asV792-355-823-391
p4131
(lp4132
L1718L
asV202-363-212-325
p4133
(lp4134
L513L
asV387-948-418-874
p4135
(lp4136
L2082L
asV109-408-116-431
p4137
(lp4138
L136L
asV296-473-328-511
p4139
(lp4140
L437L
asV231-616-262-521
p4141
(lp4142
L163L
asV941-978-968-941
p4143
(lp4144
L82L
aL880L
asV191-789-203-786
p4145
(lp4146
L1525L
asV607-138-626-088
p4147
(lp4148
L900L
asV944-425-974-391
p4149
(lp4150
L806L
aL1055L
asV237-045-259-015
p4151
(lp4152
L226L
asV621-789-659-782
p4153
(lp4154
L1128L
asV839-465-843-423
p4155
(lp4156
L655L
aL2275L
asV209-955-236-992
p4157
(lp4158
L1720L
asV178-878-194-860
p4159
(lp4160
L735L
asV664-988-686-965
p4161
(lp4162
L68L
asV768-320-792-355
p4163
(lp4164
L1217L
asV441-512-458-596
p4165
(lp4166
L1986L
asV135-475-145-451
p4167
(lp4168
L1172L
asV885-419-928-391
p4169
(lp4170
L1417L
asV239-431-247-408
p4171
(lp4172
L2419L
asV634-855-684-916
p4173
(lp4174
L1129L
asV448-369-457-335
p4175
(lp4176
L949L
asV302-614-328-511
p4177
(lp4178
L633L
asV604-441-611-468
p4179
(lp4180
L73L
asV611-265-635-322
p4181
(lp4182
L938L
asV211-451-220-475
p4183
(lp4184
L996L
asV149-610-175-668
p4185
(lp4186
L1281L
asV231-198-251-261
p4187
(lp4188
L201L
asV703-335-713-369
p4189
(lp4190
L687L
asV466-444-478-420
p4191
(lp4192
L614L
asV837-358-880-324
p4193
(lp4194
L521L
aL621L
asV538-388-548-362
p4195
(lp4196
L530L
asV146-476-154-514
p4197
(lp4198
L991L
asV558-732-577-737
p4199
(lp4200
L57L
asV891-479-910-489
p4201
(lp4202
L1498L
asV290-397-301-374
p4203
(lp4204
L1235L
asV897-547-923-532
p4205
(lp4206
L1829L
asV028-269-066-323
p4207
(lp4208
L1149L
asV152-691-176-727
p4209
(lp4210
L1754L
asV038-333-067-371
p4211
(lp4212
L1954L
asV866-490-878-479
p4213
(lp4214
L19L
aL1977L
asV060-448-072-430
p4215
(lp4216
L1865L
asV681-030-694-052
p4217
(lp4218
L243L
asV768-320-801-288
p4219
(lp4220
L2144L
aL2237L
asV700-370-712-395
p4221
(lp4222
L875L
asV052-075-076-042
p4223
(lp4224
L997L
asV743-874-787-840
p4225
(lp4226
L2288L
asV923-476-952-515
p4227
(lp4228
L766L
aL1192L
asV628-049-638-033
p4229
(lp4230
L1541L
asV278-042-303-075
p4231
(lp4232
L2188L
asV294-994-317-950
p4233
(lp4234
L1029L
asV480-326-493-356
p4235
(lp4236
L2003L
asV450-072-467-052
p4237
(lp4238
L1919L
asV457-335-471-366
p4239
(lp4240
L2283L
asV675-859-716-849
p4241
(lp4242
L723L
asV666-145-679-097
p4243
(lp4244
L1851L
asV062-709-110-771
p4245
(lp4246
L1091L
asV519-989-549-939
p4247
(lp4248
L1273L
asV060-994-102-947
p4249
(lp4250
L1254L
asV640-199-666-145
p4251
(lp4252
L564L
asV828-543-848-507
p4253
(lp4254
L1535L
asV433-198-454-273
p4255
(lp4256
L474L
asV092-805-110-771
p4257
(lp4258
L2165L
asV144-325-153-363
p4259
(lp4260
L1514L
asV930-324-945-354
p4261
(lp4262
L1213L
aL1585L
asV200-141-231-198
p4263
(lp4264
L1631L
asV532-465-541-441
p4265
(lp4266
L561L
asV445-133-457-199
p4267
(lp4268
L1168L
asV501-742-548-694
p4269
(lp4270
L416L
asV067-371-078-405
p4271
(lp4272
L2252L
asV221-709-271-619
p4273
(lp4274
L1481L
asV026-511-052-614
p4275
(lp4276
L951L
asV131-371-142-398
p4277
(lp4278
L1659L
asV905-936-912-900
p4279
(lp4280
L53L
aL793L
asV928-391-944-425
p4281
(lp4282
L1755L
asV792-565-815-514
p4283
(lp4284
L1776L
aL2117L
asV672-443-683-465
p4285
(lp4286
L446L
asV232-479-262-521
p4287
(lp4288
L682L
asV178-969-197-993
p4289
(lp4290
L1620L
asV926-290-947-323
p4291
(lp4292
L1854L
asV270-430-281-452
p4293
(lp4294
L1881L
asV184-261-212-325
p4295
(lp4296
L141L
asV451-466-466-444
p4297
(lp4298
L457L
asV644-389-656-354
p4299
(lp4300
L520L
asV675-859-715-938
p4301
(lp4302
L2479L
asV880-291-901-264
p4303
(lp4304
L808L
aL1913L
asV688-395-702-419
p4305
(lp4306
L472L
asV617-652-661-692
p4307
(lp4308
L2264L
asV154-835-178-828
p4309
(lp4310
L1923L
asV487-420-500-396
p4311
(lp4312
L1980L
asV264-479-298-518
p4313
(lp4314
L412L
asV134-709-156-750
p4315
(lp4316
L675L
asV712-395-726-417
p4317
(lp4318
L494L
asV247-379-259-405
p4319
(lp4320
L288L
asV818-356-835-325
p4321
(lp4322
L271L
asV926-290-948-323
p4323
(lp4324
L46L
asV284-142-323-200
p4325
(lp4326
L648L
asV945-390-972-354
p4327
(lp4328
L704L
aL1903L
asV815-514-826-427
p4329
(lp4330
L1707L
asV526-855-556-801
p4331
(lp4332
L1886L
asV266-842-279-888
p4333
(lp4334
L1540L
asV449-759-501-782
p4335
(lp4336
L536L
asV923-799-951-842
p4337
(lp4338
L974L
aL1371L
asV789-320-815-290
p4339
(lp4340
L1016L
asV116-409-127-429
p4341
(lp4342
L1905L
asV088-454-102-431
p4343
(lp4344
L2480L
asV913-509-923-532
p4345
(lp4346
L2310L
asV476-916-497-951
p4347
(lp4348
L1943L
asV565-755-580-771
p4349
(lp4350
L1165L
asV728-464-741-440
p4351
(lp4352
L1640L
asV549-265-571-319
p4353
(lp4354
L1709L
asV417-669-458-596
p4355
(lp4356
L264L
asV516-417-526-396
p4357
(lp4358
L2059L
asV099-873-112-834
p4359
(lp4360
L1247L
asV667-356-680-326
p4361
(lp4362
L2215L
asV061-936-076-889
p4363
(lp4364
L13L
asV815-322-836-292
p4365
(lp4366
L1492L
asV271-619-298-518
p4367
(lp4368
L765L
asV457-199-481-258
p4369
(lp4370
L2185L
asV716-849-743-822
p4371
(lp4372
L1137L
asV496-586-532-507
p4373
(lp4374
L191L
asV234-807-244-834
p4375
(lp4376
L574L
asV496-506-522-473
p4377
(lp4378
L2270L
asV815-514-825-427
p4379
(lp4380
L1963L
asV665-819-713-802
p4381
(lp4382
L109L
asV200-819-203-786
p4383
(lp4384
L837L
asV552-894-580-935
p4385
(lp4386
L660L
asV983-809-983-845
p4387
(lp4388
L1456L
aL1701L
asV187-928-209-955
p4389
(lp4390
L1601L
asV914-814-922-773
p4391
(lp4392
L905L
aL981L
asV118-045-142-079
p4393
(lp4394
L33L
asV951-842-979-892
p4395
(lp4396
L85L
aL1202L
asV236-382-247-408
p4397
(lp4398
L2199L
asV703-199-715-133
p4399
(lp4400
L97L
asV664-586-693-511
p4401
(lp4402
L1275L
asV281-452-296-473
p4403
(lp4404
L1245L
asV026-511-058-473
p4405
(lp4406
L576L
asV124-144-142-079
p4407
(lp4408
L2132L
asV463-468-477-441
p4409
(lp4410
L2262L
asV680-060-693-088
p4411
(lp4412
L841L
asV057-519-091-479
p4413
(lp4414
L769L
asV702-419-721-437
p4415
(lp4416
L719L
asV477-465-488-443
p4417
(lp4418
L2192L
asV454-273-480-326
p4419
(lp4420
L2378L
asV499-692-542-652
p4421
(lp4422
L1252L
asV551-410-559-388
p4423
(lp4424
L2157L
asV815-290-837-262
p4425
(lp4426
L1682L
aL2224L
asV099-349-108-379
p4427
(lp4428
L1989L
asV969-739-981-776
p4429
(lp4430
L248L
aL803L
asV923-511-940-544
p4431
(lp4432
L1676L
asV296-207-326-269
p4433
(lp4434
L134L
asV153-786-165-789
p4435
(lp4436
L2094L
asV604-441-620-417
p4437
(lp4438
L1967L
asV643-444-654-469
p4439
(lp4440
L688L
asV506-469-516-444
p4441
(lp4442
L1483L
asV374-680-427-605
p4443
(lp4444
L1782L
asV031-200-070-142
p4445
(lp4446
L113L
asV064-761-074-800
p4447
(lp4448
L824L
asV058-207-099-142
p4449
(lp4450
L140L
asV587-590-617-652
p4451
(lp4452
L707L
asV504-354-516-389
p4453
(lp4454
L93L
asV138-260-160-202
p4455
(lp4456
L1598L
asV607-894-634-855
p4457
(lp4458
L698L
asV792-565-852-575
p4459
(lp4460
L10L
aL1569L
asV040-897-061-936
p4461
(lp4462
L2062L
asV253-431-266-454
p4463
(lp4464
L496L
asV186-443-198-472
p4465
(lp4466
L1113L
asV836-292-853-263
p4467
(lp4468
L357L
aL2397L
asV948-323-972-354
p4469
(lp4470
L12L
asV289-323-326-269
p4471
(lp4472
L176L
asV548-694-573-667
p4473
(lp4474
L1867L
asV181-668-206-610
p4475
(lp4476
L934L
asV369-776-413-717
p4477
(lp4478
L1438L
asV883-478-902-469
p4479
(lp4480
L116L
asV936-256-966-289
p4481
(lp4482
L616L
asV774-488-791-395
p4483
(lp4484
L1337L
aL1610L
asV606-784-614-761
p4485
(lp4486
L2058L
asV744-669-793-733
p4487
(lp4488
L787L
asV028-269-058-207
p4489
(lp4490
L400L
asV080-924-099-873
p4491
(lp4492
L2120L
asV202-423-211-451
p4493
(lp4494
L2408L
asV119-992-147-955
p4495
(lp4496
L112L
asV147-955-169-928
p4497
(lp4498
L207L
asV944-938-979-892
p4499
(lp4500
L1383L
aL2449L
asV220-475-224-518
p4501
(lp4502
L1436L
asV707-442-728-464
p4503
(lp4504
L2402L
asV702-596-744-669
p4505
(lp4506
L2012L
asV097-040-121-077
p4507
(lp4508
L1282L
asV588-258-616-201
p4509
(lp4510
L65L
asV516-444-532-465
p4511
(lp4512
L1532L
asV119-382-131-402
p4513
(lp4514
L1663L
asV117-354-144-325
p4515
(lp4516
L194L
asV680-397-691-420
p4517
(lp4518
L1201L
asV202-835-230-823
p4519
(lp4520
L763L
asV467-511-496-586
p4521
(lp4522
L1143L
asV153-363-164-390
p4523
(lp4524
L751L
asV481-060-491-034
p4525
(lp4526
L1428L
asV550-324-559-360
p4527
(lp4528
L1966L
asV245-771-292-709
p4529
(lp4530
L840L
asV146-476-156-450
p4531
(lp4532
L1215L
asV884-580-949-629
p4533
(lp4534
L918L
aL2390L
asV671-469-693-511
p4535
(lp4536
L45L
asV218-260-236-317
p4537
(lp4538
L2004L
asV259-405-274-381
p4539
(lp4540
L460L
asV946-731-969-768
p4541
(lp4542
L1855L
aL2320L
asV707-273-727-198
p4543
(lp4544
L1956L
asV523-362-538-388
p4545
(lp4546
L1395L
asV713-369-725-396
p4547
(lp4548
L1130L
asV481-258-499-311
p4549
(lp4550
L847L
asV912-900-951-842
p4551
(lp4552
L1677L
aL1738L
asV661-692-712-759
p4553
(lp4554
L1038L
asV006-896-037-950
p4555
(lp4556
L1629L
asV928-263-942-290
p4557
(lp4558
L1232L
aL1962L
asV501-782-538-789
p4559
(lp4560
L172L
asV254-714-302-614
p4561
(lp4562
L1366L
asV044-136-077-074
p4563
(lp4564
L2254L
asV449-706-498-650
p4565
(lp4566
L415L
asV643-054-662-097
p4567
(lp4568
L2303L
asV728-464-754-509
p4569
(lp4570
L2493L
asV600-360-609-385
p4571
(lp4572
L1636L
asV638-254-665-195
p4573
(lp4574
L1793L
asV909-264-926-290
p4575
(lp4576
L578L
aL2256L
asV435-991-445-938
p4577
(lp4578
L1292L
asV913-509-923-476
p4579
(lp4580
L428L
asV448-802-495-819
p4581
(lp4582
L421L
asV913-937-941-978
p4583
(lp4584
L409L
aL1041L
asV197-993-209-955
p4585
(lp4586
L1068L
asV801-288-832-259
p4587
(lp4588
L539L
aL549L
asV791-355-823-391
p4589
(lp4590
L638L
asV157-809-178-810
p4591
(lp4592
L462L
asV093-521-124-479
p4593
(lp4594
L568L
asV387-948-435-991
p4595
(lp4596
L63L
asV549-939-579-987
p4597
(lp4598
L2206L
asV871-472-883-478
p4599
(lp4600
L378L
asV099-873-129-886
p4601
(lp4602
L2203L
asV434-417-449-395
p4603
(lp4604
L613L
asV295-422-303-397
p4605
(lp4606
L206L
asV432-464-453-442
p4607
(lp4608
L2143L
asV234-455-245-479
p4609
(lp4610
L388L
asV826-427-840-393
p4611
(lp4612
L624L
asV195-202-218-260
p4613
(lp4614
L1916L
asV154-514-174-591
p4615
(lp4616
L1644L
asV891-479-909-489
p4617
(lp4618
L1949L
asV611-468-627-507
p4619
(lp4620
L1497L
asV611-694-659-742
p4621
(lp4622
L1589L
asV277-074-310-136
p4623
(lp4624
L205L
asV603-801-634-855
p4625
(lp4626
L1148L
asV206-768-254-714
p4627
(lp4628
L1379L
asV467-088-481-060
p4629
(lp4630
L1945L
asV689-366-703-335
p4631
(lp4632
L1804L
asV178-828-202-835
p4633
(lp4634
L459L
asV660-396-673-420
p4635
(lp4636
L361L
asV070-142-098-078
p4637
(lp4638
L2396L
asV606-784-625-820
p4639
(lp4640
L2172L
asV558-768-580-783
p4641
(lp4642
L829L
asV621-388-636-362
p4643
(lp4644
L833L
asV711-706-749-768
p4645
(lp4646
L1788L
asV555-856-580-890
p4647
(lp4648
L279L
asV099-349-120-317
p4649
(lp4650
L2140L
asV621-789-675-859
p4651
(lp4652
L801L
asV257-078-284-142
p4653
(lp4654
L565L
asV607-894-645-946
p4655
(lp4656
L2306L
asV418-822-445-849
p4657
(lp4658
L1025L
asV538-388-551-410
p4659
(lp4660
L757L
asV599-415-604-441
p4661
(lp4662
L358L
asV619-441-627-465
p4663
(lp4664
L1914L
asV917-574-975-572
p4665
(lp4666
L262L
aL2333L
asV184-469-202-514
p4667
(lp4668
L1611L
asV640-989-663-951
p4669
(lp4670
L1234L
asV142-398-154-423
p4671
(lp4672
L1846L
asV375-840-418-874
p4673
(lp4674
L2131L
asV006-896-041-852
p4675
(lp4676
L1581L
asV467-511-489-469
p4677
(lp4678
L1439L
asV620-417-633-396
p4679
(lp4680
L2028L
asV099-142-121-077
p4681
(lp4682
L942L
asV152-394-165-417
p4683
(lp4684
L1570L
asV871-472-884-478
p4685
(lp4686
L865L
asV282-430-295-448
p4687
(lp4688
L2309L
asV438-331-454-273
p4689
(lp4690
L747L
asV896-547-923-532
p4691
(lp4692
L2013L
asV681-195-695-139
p4693
(lp4694
L753L
asV893-499-907-530
p4695
(lp4696
L506L
aL1222L
asV608-410-621-388
p4697
(lp4698
L690L
asV259-015-278-042
p4699
(lp4700
L477L
asV922-773-946-731
p4701
(lp4702
L312L
aL968L
asV206-610-224-518
p4703
(lp4704
L639L
asV498-650-536-585
p4705
(lp4706
L1147L
asV449-395-460-370
p4707
(lp4708
L1390L
asV004-777-041-852
p4709
(lp4710
L2484L
asV748-717-792-776
p4711
(lp4712
L209L
asV928-391-945-354
p4713
(lp4714
L1355L
asV076-042-096-015
p4715
(lp4716
L373L
asV661-247-681-195
p4717
(lp4718
L586L
asV734-605-787-680
p4719
(lp4720
L910L
asV636-362-644-389
p4721
(lp4722
L2366L
asV819-356-835-325
p4723
(lp4724
L821L
asV144-325-172-261
p4725
(lp4726
L1331L
asV178-969-187-928
p4727
(lp4728
L354L
asV500-396-516-417
p4729
(lp4730
L1898L
asV413-717-452-658
p4731
(lp4732
L1195L
asV871-472-886-444
p4733
(lp4734
L854L
aL1695L
asV277-405-287-371
p4735
(lp4736
L1381L
asV041-464-060-448
p4737
(lp4738
L227L
asV867-551-884-580
p4739
(lp4740
L1185L
aL1655L
asV526-855-552-894
p4741
(lp4742
L1773L
asV635-322-636-362
p4743
(lp4744
L1058L
asV616-201-642-145
p4745
(lp4746
L183L
asV580-783-605-856
p4747
(lp4748
L883L
asV317-950-348-896
p4749
(lp4750
L84L
asV948-794-969-768
p4751
(lp4752
L1643L
aL2461L
asV498-097-517-145
p4753
(lp4754
L573L
asV258-202-296-266
p4755
(lp4756
L1861L
asV858-450-885-419
p4757
(lp4758
L1159L
aL1164L
asV465-139-479-195
p4759
(lp4760
L280L
asV121-950-151-920
p4761
(lp4762
L1952L
asV903-900-922-842
p4763
(lp4764
L1346L
aL1447L
asV247-455-264-479
p4765
(lp4766
L2103L
asV178-810-199-809
p4767
(lp4768
L1488L
asV638-254-660-311
p4769
(lp4770
L95L
asV534-820-553-784
p4771
(lp4772
L1082L
asV516-389-523-362
p4773
(lp4774
L240L
asV488-443-498-425
p4775
(lp4776
L622L
asV247-379-256-349
p4777
(lp4778
L2187L
asV224-402-236-382
p4779
(lp4780
L956L
asV482-369-488-396
p4781
(lp4782
L11L
asV827-543-848-507
p4783
(lp4784
L1231L
asV204-920-234-950
p4785
(lp4786
L745L
asV124-616-152-691
p4787
(lp4788
L2460L
asV467-088-481-143
p4789
(lp4790
L1065L
asV680-326-707-273
p4791
(lp4792
L2043L
asV669-034-680-060
p4793
(lp4794
L2162L
asV263-318-277-353
p4795
(lp4796
L1L
asV235-077-257-040
p4797
(lp4798
L233L
asV885-419-913-448
p4799
(lp4800
L1295L
aL2326L
asV178-878-188-903
p4801
(lp4802
L1961L
asV186-443-202-423
p4803
(lp4804
L681L
asV702-596-719-512
p4805
(lp4806
L1028L
asV912-509-923-532
p4807
(lp4808
L1418L
asV281-800-294-848
p4809
(lp4810
L2222L
asV936-256-965-289
p4811
(lp4812
L20L
asV791-395-825-427
p4813
(lp4814
L198L
asV213-079-237-045
p4815
(lp4816
L2049L
asV942-290-974-323
p4817
(lp4818
L157L
aL2267L
asV131-402-139-426
p4819
(lp4820
L1031L
asV077-074-097-040
p4821
(lp4822
L932L
asV580-935-607-894
p4823
(lp4824
L730L
asV689-366-699-394
p4825
(lp4826
L522L
asV467-052-479-030
p4827
(lp4828
L350L
asV075-475-088-454
p4829
(lp4830
L439L
asV007-948-038-995
p4831
(lp4832
L2327L
asV096-405-108-379
p4833
(lp4834
L1630L
asV894-528-897-547
p4835
(lp4836
L1528L
asV951-842-972-797
p4837
(lp4838
L231L
aL1241L
asV691-420-707-442
p4839
(lp4840
L637L
asV765-353-791-395
p4841
(lp4842
L1529L
aL1645L
asV535-356-550-324
p4843
(lp4844
L1416L
asV972-797-981-776
p4845
(lp4846
L643L
aL2179L
asV202-423-213-398
p4847
(lp4848
L1196L
asV222-453-232-479
p4849
(lp4850
L1313L
asV191-417-203-394
p4851
(lp4852
L1019L
asV088-842-092-805
p4853
(lp4854
L2238L
asV180-727-204-691
p4855
(lp4856
L1062L
asV295-448-313-464
p4857
(lp4858
L1460L
asV074-452-084-430
p4859
(lp4860
L1833L
asV494-145-520-199
p4861
(lp4862
L2193L
asV527-421-541-441
p4863
(lp4864
L909L
asV849-531-863-508
p4865
(lp4866
L602L
aL1992L
asV619-441-632-421
p4867
(lp4868
L2371L
asV453-442-469-420
p4869
(lp4870
L1512L
asV643-444-662-425
p4871
(lp4872
L1662L
asV052-614-101-715
p4873
(lp4874
L331L
asV927-459-928-422
p4875
(lp4876
L495L
asV057-519-084-619
p4877
(lp4878
L81L
asV496-060-521-033
p4879
(lp4880
L686L
asV863-508-878-494
p4881
(lp4882
L581L
aL694L
asV154-423-170-443
p4883
(lp4884
L950L
asV256-873-275-924
p4885
(lp4886
L159L
asV586-667-611-694
p4887
(lp4888
L15L
asV101-715-149-768
p4889
(lp4890
L594L
asV131-518-149-610
p4891
(lp4892
L2341L
asV228-913-253-947
p4893
(lp4894
L2426L
asV642-145-662-097
p4895
(lp4896
L2380L
asV835-325-880-291
p4897
(lp4898
L298L
aL1377L
asV849-477-863-508
p4899
(lp4900
L755L
aL1158L
asV485-859-538-789
p4901
(lp4902
L1274L
asV792-355-816-322
p4903
(lp4904
L1374L
asV450-072-465-139
p4905
(lp4906
L2332L
asV459-419-472-395
p4907
(lp4908
L418L
asV076-889-088-842
p4909
(lp4910
L1546L
asV600-360-609-324
p4911
(lp4912
L2290L
asV477-441-487-420
p4913
(lp4914
L894L
asV517-098-536-146
p4915
(lp4916
L2029L
asV133-453-139-426
p4917
(lp4918
L2063L
asV445-849-485-859
p4919
(lp4920
L165L
asV979-892-983-941
p4921
(lp4922
L1013L
aL1746L
asV819-356-840-393
p4923
(lp4924
L1901L
asV202-514-209-476
p4925
(lp4926
L871L
asV633-396-644-417
p4927
(lp4928
L1027L
asV253-947-275-924
p4929
(lp4930
L267L
asV515-946-552-894
p4931
(lp4932
L2032L
asV110-771-143-813
p4933
(lp4934
L35L
asV582-737-601-732
p4935
(lp4936
L978L
asV213-398-224-371
p4937
(lp4938
L1311L
asV009-682-064-761
p4939
(lp4940
L902L
asV659-782-712-759
p4941
(lp4942
L1352L
asV913-937-947-888
p4943
(lp4944
L386L
aL585L
asV840-393-882-356
p4945
(lp4946
L403L
aL551L
asV121-455-127-429
p4947
(lp4948
L834L
asV245-771-263-805
p4949
(lp4950
L853L
asV644-417-660-396
p4951
(lp4952
L310L
asV623-146-642-098
p4953
(lp4954
L1847L
asV449-759-499-692
p4955
(lp4956
L1074L
asV716-849-741-944
p4957
(lp4958
L482L
asV887-558-897-547
p4959
(lp4960
L703L
asV257-040-277-074
p4961
(lp4962
L626L
asV555-856-580-783
p4963
(lp4964
L606L
asV662-425-672-443
p4965
(lp4966
L1048L
asV192-390-202-363
p4967
(lp4968
L1344L
asV270-430-277-405
p4969
(lp4970
L230L
asV058-266-097-202
p4971
(lp4972
L399L
asV452-045-469-021
p4973
(lp4974
L1258L
asV923-799-946-762
p4975
(lp4976
L630L
aL2166L
asV281-800-290-761
p4977
(lp4978
L2423L
asV633-438-644-417
p4979
(lp4980
L629L
asV445-938-485-859
p4981
(lp4982
L1654L
asV212-325-238-354
p4983
(lp4984
L600L
asV725-991-774-948
p4985
(lp4986
L879L
asV469-420-480-397
p4987
(lp4988
L1228L
asV815-514-849-477
p4989
(lp4990
L852L
aL2163L
asV791-395-826-427
p4991
(lp4992
L371L
asV673-420-683-441
p4993
(lp4994
L1310L
asV115-016-140-050
p4995
(lp4996
L1114L
asV125-823-154-835
p4997
(lp4998
L49L
asV539-417-555-441
p4999
(lp5000
L919L
asV952-515-975-572
p5001
(lp5002
L1162L
aL1318L
asV840-393-885-419
p5003
(lp5004
L1454L
aL2284L
asV902-469-923-476
p5005
(lp5006
L189L
aL762L
asV053-374-065-397
p5007
(lp5008
L844L
asV037-950-060-994
p5009
(lp5010
L2127L
asV412-768-449-706
p5011
(lp5012
L332L
asV154-514-172-469
p5013
(lp5014
L588L
asV102-947-127-914
p5015
(lp5016
L575L
asV181-760-200-750
p5017
(lp5018
L2240L
asV093-521-124-616
p5019
(lp5020
L296L
asV145-451-154-423
p5021
(lp5022
L524L
asV287-371-316-333
p5023
(lp5024
L1198L
asV679-258-703-199
p5025
(lp5026
L2446L
asV204-691-231-616
p5027
(lp5028
L1875L
asV708-658-748-717
p5029
(lp5030
L781L
asV662-650-711-706
p5031
(lp5032
L912L
asV124-479-133-453
p5033
(lp5034
L1449L
asV080-924-102-947
p5035
(lp5036
L947L
asV306-795-349-734
p5037
(lp5038
L1250L
asV821-630-884-580
p5039
(lp5040
L491L
aL1522L
asV058-473-074-452
p5041
(lp5042
L1990L
asV715-938-725-991
p5043
(lp5044
L2245L
asV450-993-476-916
p5045
(lp5046
L1464L
asV818-356-840-393
p5047
(lp5048
L2405L
asV096-015-118-045
p5049
(lp5050
L706L
asV216-426-224-402
p5051
(lp5052
L1316L
asV886-549-894-537
p5053
(lp5054
L901L
aL1765L
asV498-097-516-054
p5055
(lp5056
L1807L
asV472-395-482-369
p5057
(lp5058
L1671L
asV562-748-577-744
p5059
(lp5060
L2150L
asV613-018-628-049
p5061
(lp5062
L858L
asV368-733-417-669
p5063
(lp5064
L972L
asV203-394-213-370
p5065
(lp5066
L1814L
asV050-017-076-042
p5067
(lp5068
L434L
asV104-261-124-198
p5069
(lp5070
L2440L
asV253-947-294-994
p5071
(lp5072
L1536L
asV983-845-991-891
p5073
(lp5074
L1080L
aL2053L
asV078-353-092-318
p5075
(lp5076
L1312L
asV189-883-204-920
p5077
(lp5078
L2444L
asV974-391-996-356
p5079
(lp5080
L702L
aL2149L
asV593-755-614-761
p5081
(lp5082
L2073L
asV501-742-545-761
p5083
(lp5084
L366L
asV878-537-886-549
p5085
(lp5086
L1762L
aL2407L
asV494-195-521-254
p5087
(lp5088
L2325L
asV911-778-923-739
p5089
(lp5090
L1614L
aL2122L
asV610-939-640-989
p5091
(lp5092
L1304L
asV660-311-679-258
p5093
(lp5094
L303L
asV791-355-815-322
p5095
(lp5096
L99L
asV909-457-926-459
p5097
(lp5098
L1206L
asV609-324-624-356
p5099
(lp5100
L216L
asV721-437-726-417
p5101
(lp5102
L478L
asV517-145-543-201
p5103
(lp5104
L490L
asV926-459-928-422
p5105
(lp5106
L1263L
asV516-417-526-438
p5107
(lp5108
L992L
asV058-266-092-318
p5109
(lp5110
L2153L
asV316-995-346-948
p5111
(lp5112
L542L
asV694-052-710-072
p5113
(lp5114
L1032L
asV497-951-519-989
p5115
(lp5116
L2186L
asV158-993-178-969
p5117
(lp5118
L761L
asV435-396-448-369
p5119
(lp5120
L214L
asV545-761-553-784
p5121
(lp5122
L2470L
asV884-478-902-469
p5123
(lp5124
L1543L
asV627-465-643-444
p5125
(lp5126
L1633L
asV876-545-879-508
p5127
(lp5128
L592L
aL2377L
asV290-761-345-682
p5129
(lp5130
L101L
asV532-507-549-468
p5131
(lp5132
L301L
asV169-928-178-902
p5133
(lp5134
L1826L
asV825-427-840-393
p5135
(lp5136
L739L
asV499-311-521-254
p5137
(lp5138
L225L
asV212-813-245-771
p5139
(lp5140
L2349L
asV266-454-280-475
p5141
(lp5142
L2090L
asV887-558-896-547
p5143
(lp5144
L2280L
asV858-450-886-444
p5145
(lp5146
L1191L
aL1249L
asV579-752-593-755
p5147
(lp5148
L683L
asV909-457-927-459
p5149
(lp5150
L529L
asV151-920-167-883
p5151
(lp5152
L1378L
asV293-936-314-897
p5153
(lp5154
L2491L
asV682-420-695-444
p5155
(lp5156
L532L
asV626-088-643-054
p5157
(lp5158
L1210L
asV542-652-572-590
p5159
(lp5160
L2328L
asV882-356-927-391
p5161
(lp5162
L1289L
asV120-317-138-260
p5163
(lp5164
L1549L
asV117-354-119-382
p5165
(lp5166
L1760L
asV699-394-713-416
p5167
(lp5168
L664L
asV555-441-560-415
p5169
(lp5170
L509L
asV256-142-296-207
p5171
(lp5172
L2175L
asV169-928-178-969
p5173
(lp5174
L2248L
asV589-467-604-441
p5175
(lp5176
L1973L
asV407-509-432-464
p5177
(lp5178
L2376L
asV565-755-579-752
p5179
(lp5180
L1402L
asV880-291-930-324
p5181
(lp5182
L1394L
aL1572L
asV597-199-623-146
p5183
(lp5184
L1658L
asV005-734-048-795
p5185
(lp5186
L1894L
asV014-607-062-709
p5187
(lp5188
L1081L
asV580-890-605-856
p5189
(lp5190
L2481L
asV638-473-664-506
p5191
(lp5192
L1322L
asV882-356-930-324
p5193
(lp5194
L277L
aL2452L
asV743-874-774-948
p5195
(lp5196
L1615L
asV277-405-295-422
p5197
(lp5198
L2L
asV158-472-170-443
p5199
(lp5200
L1613L
asV947-323-972-354
p5201
(lp5202
L1204L
asV884-580-904-552
p5203
(lp5204
L1086L
aL2330L
asV531-049-548-076
p5205
(lp5206
L289L
asV091-479-108-455
p5207
(lp5208
L1906L
asV614-761-659-742
p5209
(lp5210
L66L
asV638-033-664-060
p5211
(lp5212
L1625L
asV550-385-559-360
p5213
(lp5214
L2339L
asV660-446-671-469
p5215
(lp5216
L623L
asV228-429-239-409
p5217
(lp5218
L1674L
asV080-381-096-405
p5219
(lp5220
L1437L
asV200-750-221-709
p5221
(lp5222
L654L
asV885-419-927-391
p5223
(lp5224
L1200L
asV849-531-876-545
p5225
(lp5226
L32L
aL466L
asV768-320-791-355
p5227
(lp5228
L805L
asV516-054-533-088
p5229
(lp5230
L1209L
asV235-077-256-142
p5231
(lp5232
L147L
asV600-388-608-410
p5233
(lp5234
L1721L
asV691-021-708-045
p5235
(lp5236
L1389L
asV894-528-896-547
p5237
(lp5238
L1756L
asV162-860-178-878
p5239
(lp5240
L278L
asV695-444-709-466
p5241
(lp5242
L1260L
asV663-951-684-916
p5243
(lp5244
L1350L
asV944-425-952-515
p5245
(lp5246
L705L
aL1600L
asV520-199-549-265
p5247
(lp5248
L2061L
asV292-709-340-607
p5249
(lp5250
L1115L
asV914-814-922-842
p5251
(lp5252
L1220L
aL1435L
asV531-049-546-018
p5253
(lp5254
L2223L
asV579-987-610-939
p5255
(lp5256
L166L
asV239-431-247-455
p5257
(lp5258
L1237L
asV693-511-697-468
p5259
(lp5260
L558L
asV078-353-096-377
p5261
(lp5262
L1240L
asV882-356-928-391
p5263
(lp5264
L1705L
asV263-318-296-266
p5265
(lp5266
L67L
asV525-322-549-265
p5267
(lp5268
L219L
asV498-425-516-444
p5269
(lp5270
L1045L
asV504-354-525-322
p5271
(lp5272
L1691L
asV582-744-596-748
p5273
(lp5274
L21L
asV924-511-941-544
p5275
(lp5276
L1553L
asV886-444-913-448
p5277
(lp5278
L432L
aL1084L
asV434-417-440-437
p5279
(lp5280
L843L
asV533-088-552-138
p5281
(lp5282
L1665L
asV153-786-156-819
p5283
(lp5284
L508L
asV623-585-662-650
p5285
(lp5286
L118L
asV683-441-697-468
p5287
(lp5288
L678L
asV440-437-459-419
p5289
(lp5290
L1367L
asV972-354-995-322
p5291
(lp5292
L986L
aL1843L
asV463-468-467-511
p5293
(lp5294
L1404L
asV156-750-174-760
p5295
(lp5296
L1154L
asV695-139-710-072
p5297
(lp5298
L511L
asV412-768-448-802
p5299
(lp5300
L1305L
asV588-319-611-265
p5301
(lp5302
L1974L
asV295-422-309-442
p5303
(lp5304
L1452L
asV974-323-980-288
p5305
(lp5306
L1603L
aL2239L
asV849-477-871-472
p5307
(lp5308
L979L
aL2323L
asV536-585-572-508
p5309
(lp5310
L936L
asV259-377-277-353
p5311
(lp5312
L962L
asV110-479-121-455
p5313
(lp5314
L846L
asV108-455-116-431
p5315
(lp5316
L971L
asV912-509-923-476
p5317
(lp5318
L161L
asV213-079-231-144
p5319
(lp5320
L2324L
asV549-468-555-441
p5321
(lp5322
L1035L
asV419-440-432-464
p5323
(lp5324
L1696L
asV279-888-293-936
p5325
(lp5326
L1427L
asV447-416-461-394
p5327
(lp5328
L777L
asV555-441-570-467
p5329
(lp5330
L1808L
asV124-198-156-141
p5331
(lp5332
L2164L
asV131-518-135-475
p5333
(lp5334
L510L
asV102-947-119-992
p5335
(lp5336
L1704L
asV489-469-500-446
p5337
(lp5338
L2042L
asV917-574-923-532
p5339
(lp5340
L862L
aL2392L
asV236-382-238-354
p5341
(lp5342
L2070L
asV231-144-258-202
p5343
(lp5344
L1592L
asV839-465-863-458
p5345
(lp5346
L471L
aL1296L
asV061-848-074-800
p5347
(lp5348
L811L
asV672-396-678-369
p5349
(lp5350
L2369L
asV587-508-623-585
p5351
(lp5352
L1288L
asV168-903-178-878
p5353
(lp5354
L475L
asV953-976-983-941
p5355
(lp5356
L1555L
aL2354L
asV580-771-593-755
p5357
(lp5358
L2156L
asV927-391-945-354
p5359
(lp5360
L393L
asV052-397-060-422
p5361
(lp5362
L849L
asV664-586-708-658
p5363
(lp5364
L1205L
asV927-391-944-425
p5365
(lp5366
L663L
ass.